
SVM_baremetal.elf:     file format elf32-littlearm

Sections:
Idx Name          Size      VMA       LMA       File off  Algn
  0 .isr_vector   00000188  08000000  08000000  00010000  2**0
                  CONTENTS, ALLOC, LOAD, READONLY, DATA
  1 .text         00002554  08000188  08000188  00010188  2**3
                  CONTENTS, ALLOC, LOAD, READONLY, CODE
  2 .rodata       000001d8  080026e0  080026e0  000126e0  2**3
                  CONTENTS, ALLOC, LOAD, READONLY, DATA
  3 .ARM.extab    00000000  080028b8  080028b8  00020014  2**0
                  CONTENTS
  4 .ARM          00000000  080028b8  080028b8  00020014  2**0
                  CONTENTS
  5 .preinit_array 00000000  080028b8  080028b8  00020014  2**0
                  CONTENTS, ALLOC, LOAD, DATA
  6 .init_array   00000004  080028b8  080028b8  000128b8  2**2
                  CONTENTS, ALLOC, LOAD, DATA
  7 .fini_array   00000004  080028bc  080028bc  000128bc  2**2
                  CONTENTS, ALLOC, LOAD, DATA
  8 .data         00000014  20000000  080028c0  00020000  2**2
                  CONTENTS, ALLOC, LOAD, DATA
  9 .bss          00000034  20000014  080028d4  00020014  2**2
                  ALLOC
 10 ._user_heap_stack 00000600  20000048  080028d4  00020048  2**0
                  ALLOC
 11 .ARM.attributes 00000030  00000000  00000000  00020014  2**0
                  CONTENTS, READONLY
 12 .debug_info   00002b3e  00000000  00000000  00020044  2**0
                  CONTENTS, READONLY, DEBUGGING, OCTETS
 13 .debug_abbrev 0000072b  00000000  00000000  00022b82  2**0
                  CONTENTS, READONLY, DEBUGGING, OCTETS
 14 .debug_aranges 00000210  00000000  00000000  000232b0  2**3
                  CONTENTS, READONLY, DEBUGGING, OCTETS
 15 .debug_ranges 000001c8  00000000  00000000  000234c0  2**3
                  CONTENTS, READONLY, DEBUGGING, OCTETS
 16 .debug_macro  0001ef52  00000000  00000000  00023688  2**0
                  CONTENTS, READONLY, DEBUGGING, OCTETS
 17 .debug_line   00002689  00000000  00000000  000425da  2**0
                  CONTENTS, READONLY, DEBUGGING, OCTETS
 18 .debug_str    000bef28  00000000  00000000  00044c63  2**0
                  CONTENTS, READONLY, DEBUGGING, OCTETS
 19 .comment      00000053  00000000  00000000  00103b8b  2**0
                  CONTENTS, READONLY
 20 .debug_frame  00000a88  00000000  00000000  00103be0  2**2
                  CONTENTS, READONLY, DEBUGGING, OCTETS

Disassembly of section .text:

08000188 <__do_global_dtors_aux>:
 8000188:	b510      	push	{r4, lr}
 800018a:	4c05      	ldr	r4, [pc, #20]	; (80001a0 <__do_global_dtors_aux+0x18>)
 800018c:	7823      	ldrb	r3, [r4, #0]
 800018e:	b933      	cbnz	r3, 800019e <__do_global_dtors_aux+0x16>
 8000190:	4b04      	ldr	r3, [pc, #16]	; (80001a4 <__do_global_dtors_aux+0x1c>)
 8000192:	b113      	cbz	r3, 800019a <__do_global_dtors_aux+0x12>
 8000194:	4804      	ldr	r0, [pc, #16]	; (80001a8 <__do_global_dtors_aux+0x20>)
 8000196:	f3af 8000 	nop.w
 800019a:	2301      	movs	r3, #1
 800019c:	7023      	strb	r3, [r4, #0]
 800019e:	bd10      	pop	{r4, pc}
 80001a0:	20000014 	.word	0x20000014
 80001a4:	00000000 	.word	0x00000000
 80001a8:	080026c4 	.word	0x080026c4

080001ac <frame_dummy>:
 80001ac:	b508      	push	{r3, lr}
 80001ae:	4b03      	ldr	r3, [pc, #12]	; (80001bc <frame_dummy+0x10>)
 80001b0:	b11b      	cbz	r3, 80001ba <frame_dummy+0xe>
 80001b2:	4903      	ldr	r1, [pc, #12]	; (80001c0 <frame_dummy+0x14>)
 80001b4:	4803      	ldr	r0, [pc, #12]	; (80001c4 <frame_dummy+0x18>)
 80001b6:	f3af 8000 	nop.w
 80001ba:	bd08      	pop	{r3, pc}
 80001bc:	00000000 	.word	0x00000000
 80001c0:	20000018 	.word	0x20000018
 80001c4:	080026c4 	.word	0x080026c4

080001c8 <__aeabi_drsub>:
 80001c8:	f081 4100 	eor.w	r1, r1, #2147483648	; 0x80000000
 80001cc:	e002      	b.n	80001d4 <__adddf3>
 80001ce:	bf00      	nop

080001d0 <__aeabi_dsub>:
 80001d0:	f083 4300 	eor.w	r3, r3, #2147483648	; 0x80000000

080001d4 <__adddf3>:
 80001d4:	b530      	push	{r4, r5, lr}
 80001d6:	ea4f 0441 	mov.w	r4, r1, lsl #1
 80001da:	ea4f 0543 	mov.w	r5, r3, lsl #1
 80001de:	ea94 0f05 	teq	r4, r5
 80001e2:	bf08      	it	eq
 80001e4:	ea90 0f02 	teqeq	r0, r2
 80001e8:	bf1f      	itttt	ne
 80001ea:	ea54 0c00 	orrsne.w	ip, r4, r0
 80001ee:	ea55 0c02 	orrsne.w	ip, r5, r2
 80001f2:	ea7f 5c64 	mvnsne.w	ip, r4, asr #21
 80001f6:	ea7f 5c65 	mvnsne.w	ip, r5, asr #21
 80001fa:	f000 80e2 	beq.w	80003c2 <__adddf3+0x1ee>
 80001fe:	ea4f 5454 	mov.w	r4, r4, lsr #21
 8000202:	ebd4 5555 	rsbs	r5, r4, r5, lsr #21
 8000206:	bfb8      	it	lt
 8000208:	426d      	neglt	r5, r5
 800020a:	dd0c      	ble.n	8000226 <__adddf3+0x52>
 800020c:	442c      	add	r4, r5
 800020e:	ea80 0202 	eor.w	r2, r0, r2
 8000212:	ea81 0303 	eor.w	r3, r1, r3
 8000216:	ea82 0000 	eor.w	r0, r2, r0
 800021a:	ea83 0101 	eor.w	r1, r3, r1
 800021e:	ea80 0202 	eor.w	r2, r0, r2
 8000222:	ea81 0303 	eor.w	r3, r1, r3
 8000226:	2d36      	cmp	r5, #54	; 0x36
 8000228:	bf88      	it	hi
 800022a:	bd30      	pophi	{r4, r5, pc}
 800022c:	f011 4f00 	tst.w	r1, #2147483648	; 0x80000000
 8000230:	ea4f 3101 	mov.w	r1, r1, lsl #12
 8000234:	f44f 1c80 	mov.w	ip, #1048576	; 0x100000
 8000238:	ea4c 3111 	orr.w	r1, ip, r1, lsr #12
 800023c:	d002      	beq.n	8000244 <__adddf3+0x70>
 800023e:	4240      	negs	r0, r0
 8000240:	eb61 0141 	sbc.w	r1, r1, r1, lsl #1
 8000244:	f013 4f00 	tst.w	r3, #2147483648	; 0x80000000
 8000248:	ea4f 3303 	mov.w	r3, r3, lsl #12
 800024c:	ea4c 3313 	orr.w	r3, ip, r3, lsr #12
 8000250:	d002      	beq.n	8000258 <__adddf3+0x84>
 8000252:	4252      	negs	r2, r2
 8000254:	eb63 0343 	sbc.w	r3, r3, r3, lsl #1
 8000258:	ea94 0f05 	teq	r4, r5
 800025c:	f000 80a7 	beq.w	80003ae <__adddf3+0x1da>
 8000260:	f1a4 0401 	sub.w	r4, r4, #1
 8000264:	f1d5 0e20 	rsbs	lr, r5, #32
 8000268:	db0d      	blt.n	8000286 <__adddf3+0xb2>
 800026a:	fa02 fc0e 	lsl.w	ip, r2, lr
 800026e:	fa22 f205 	lsr.w	r2, r2, r5
 8000272:	1880      	adds	r0, r0, r2
 8000274:	f141 0100 	adc.w	r1, r1, #0
 8000278:	fa03 f20e 	lsl.w	r2, r3, lr
 800027c:	1880      	adds	r0, r0, r2
 800027e:	fa43 f305 	asr.w	r3, r3, r5
 8000282:	4159      	adcs	r1, r3
 8000284:	e00e      	b.n	80002a4 <__adddf3+0xd0>
 8000286:	f1a5 0520 	sub.w	r5, r5, #32
 800028a:	f10e 0e20 	add.w	lr, lr, #32
 800028e:	2a01      	cmp	r2, #1
 8000290:	fa03 fc0e 	lsl.w	ip, r3, lr
 8000294:	bf28      	it	cs
 8000296:	f04c 0c02 	orrcs.w	ip, ip, #2
 800029a:	fa43 f305 	asr.w	r3, r3, r5
 800029e:	18c0      	adds	r0, r0, r3
 80002a0:	eb51 71e3 	adcs.w	r1, r1, r3, asr #31
 80002a4:	f001 4500 	and.w	r5, r1, #2147483648	; 0x80000000
 80002a8:	d507      	bpl.n	80002ba <__adddf3+0xe6>
 80002aa:	f04f 0e00 	mov.w	lr, #0
 80002ae:	f1dc 0c00 	rsbs	ip, ip, #0
 80002b2:	eb7e 0000 	sbcs.w	r0, lr, r0
 80002b6:	eb6e 0101 	sbc.w	r1, lr, r1
 80002ba:	f5b1 1f80 	cmp.w	r1, #1048576	; 0x100000
 80002be:	d31b      	bcc.n	80002f8 <__adddf3+0x124>
 80002c0:	f5b1 1f00 	cmp.w	r1, #2097152	; 0x200000
 80002c4:	d30c      	bcc.n	80002e0 <__adddf3+0x10c>
 80002c6:	0849      	lsrs	r1, r1, #1
 80002c8:	ea5f 0030 	movs.w	r0, r0, rrx
 80002cc:	ea4f 0c3c 	mov.w	ip, ip, rrx
 80002d0:	f104 0401 	add.w	r4, r4, #1
 80002d4:	ea4f 5244 	mov.w	r2, r4, lsl #21
 80002d8:	f512 0f80 	cmn.w	r2, #4194304	; 0x400000
 80002dc:	f080 809a 	bcs.w	8000414 <__adddf3+0x240>
 80002e0:	f1bc 4f00 	cmp.w	ip, #2147483648	; 0x80000000
 80002e4:	bf08      	it	eq
 80002e6:	ea5f 0c50 	movseq.w	ip, r0, lsr #1
 80002ea:	f150 0000 	adcs.w	r0, r0, #0
 80002ee:	eb41 5104 	adc.w	r1, r1, r4, lsl #20
 80002f2:	ea41 0105 	orr.w	r1, r1, r5
 80002f6:	bd30      	pop	{r4, r5, pc}
 80002f8:	ea5f 0c4c 	movs.w	ip, ip, lsl #1
 80002fc:	4140      	adcs	r0, r0
 80002fe:	eb41 0101 	adc.w	r1, r1, r1
 8000302:	3c01      	subs	r4, #1
 8000304:	bf28      	it	cs
 8000306:	f5b1 1f80 	cmpcs.w	r1, #1048576	; 0x100000
 800030a:	d2e9      	bcs.n	80002e0 <__adddf3+0x10c>
 800030c:	f091 0f00 	teq	r1, #0
 8000310:	bf04      	itt	eq
 8000312:	4601      	moveq	r1, r0
 8000314:	2000      	moveq	r0, #0
 8000316:	fab1 f381 	clz	r3, r1
 800031a:	bf08      	it	eq
 800031c:	3320      	addeq	r3, #32
 800031e:	f1a3 030b 	sub.w	r3, r3, #11
 8000322:	f1b3 0220 	subs.w	r2, r3, #32
 8000326:	da0c      	bge.n	8000342 <__adddf3+0x16e>
 8000328:	320c      	adds	r2, #12
 800032a:	dd08      	ble.n	800033e <__adddf3+0x16a>
 800032c:	f102 0c14 	add.w	ip, r2, #20
 8000330:	f1c2 020c 	rsb	r2, r2, #12
 8000334:	fa01 f00c 	lsl.w	r0, r1, ip
 8000338:	fa21 f102 	lsr.w	r1, r1, r2
 800033c:	e00c      	b.n	8000358 <__adddf3+0x184>
 800033e:	f102 0214 	add.w	r2, r2, #20
 8000342:	bfd8      	it	le
 8000344:	f1c2 0c20 	rsble	ip, r2, #32
 8000348:	fa01 f102 	lsl.w	r1, r1, r2
 800034c:	fa20 fc0c 	lsr.w	ip, r0, ip
 8000350:	bfdc      	itt	le
 8000352:	ea41 010c 	orrle.w	r1, r1, ip
 8000356:	4090      	lslle	r0, r2
 8000358:	1ae4      	subs	r4, r4, r3
 800035a:	bfa2      	ittt	ge
 800035c:	eb01 5104 	addge.w	r1, r1, r4, lsl #20
 8000360:	4329      	orrge	r1, r5
 8000362:	bd30      	popge	{r4, r5, pc}
 8000364:	ea6f 0404 	mvn.w	r4, r4
 8000368:	3c1f      	subs	r4, #31
 800036a:	da1c      	bge.n	80003a6 <__adddf3+0x1d2>
 800036c:	340c      	adds	r4, #12
 800036e:	dc0e      	bgt.n	800038e <__adddf3+0x1ba>
 8000370:	f104 0414 	add.w	r4, r4, #20
 8000374:	f1c4 0220 	rsb	r2, r4, #32
 8000378:	fa20 f004 	lsr.w	r0, r0, r4
 800037c:	fa01 f302 	lsl.w	r3, r1, r2
 8000380:	ea40 0003 	orr.w	r0, r0, r3
 8000384:	fa21 f304 	lsr.w	r3, r1, r4
 8000388:	ea45 0103 	orr.w	r1, r5, r3
 800038c:	bd30      	pop	{r4, r5, pc}
 800038e:	f1c4 040c 	rsb	r4, r4, #12
 8000392:	f1c4 0220 	rsb	r2, r4, #32
 8000396:	fa20 f002 	lsr.w	r0, r0, r2
 800039a:	fa01 f304 	lsl.w	r3, r1, r4
 800039e:	ea40 0003 	orr.w	r0, r0, r3
 80003a2:	4629      	mov	r1, r5
 80003a4:	bd30      	pop	{r4, r5, pc}
 80003a6:	fa21 f004 	lsr.w	r0, r1, r4
 80003aa:	4629      	mov	r1, r5
 80003ac:	bd30      	pop	{r4, r5, pc}
 80003ae:	f094 0f00 	teq	r4, #0
 80003b2:	f483 1380 	eor.w	r3, r3, #1048576	; 0x100000
 80003b6:	bf06      	itte	eq
 80003b8:	f481 1180 	eoreq.w	r1, r1, #1048576	; 0x100000
 80003bc:	3401      	addeq	r4, #1
 80003be:	3d01      	subne	r5, #1
 80003c0:	e74e      	b.n	8000260 <__adddf3+0x8c>
 80003c2:	ea7f 5c64 	mvns.w	ip, r4, asr #21
 80003c6:	bf18      	it	ne
 80003c8:	ea7f 5c65 	mvnsne.w	ip, r5, asr #21
 80003cc:	d029      	beq.n	8000422 <__adddf3+0x24e>
 80003ce:	ea94 0f05 	teq	r4, r5
 80003d2:	bf08      	it	eq
 80003d4:	ea90 0f02 	teqeq	r0, r2
 80003d8:	d005      	beq.n	80003e6 <__adddf3+0x212>
 80003da:	ea54 0c00 	orrs.w	ip, r4, r0
 80003de:	bf04      	itt	eq
 80003e0:	4619      	moveq	r1, r3
 80003e2:	4610      	moveq	r0, r2
 80003e4:	bd30      	pop	{r4, r5, pc}
 80003e6:	ea91 0f03 	teq	r1, r3
 80003ea:	bf1e      	ittt	ne
 80003ec:	2100      	movne	r1, #0
 80003ee:	2000      	movne	r0, #0
 80003f0:	bd30      	popne	{r4, r5, pc}
 80003f2:	ea5f 5c54 	movs.w	ip, r4, lsr #21
 80003f6:	d105      	bne.n	8000404 <__adddf3+0x230>
 80003f8:	0040      	lsls	r0, r0, #1
 80003fa:	4149      	adcs	r1, r1
 80003fc:	bf28      	it	cs
 80003fe:	f041 4100 	orrcs.w	r1, r1, #2147483648	; 0x80000000
 8000402:	bd30      	pop	{r4, r5, pc}
 8000404:	f514 0480 	adds.w	r4, r4, #4194304	; 0x400000
 8000408:	bf3c      	itt	cc
 800040a:	f501 1180 	addcc.w	r1, r1, #1048576	; 0x100000
 800040e:	bd30      	popcc	{r4, r5, pc}
 8000410:	f001 4500 	and.w	r5, r1, #2147483648	; 0x80000000
 8000414:	f045 41fe 	orr.w	r1, r5, #2130706432	; 0x7f000000
 8000418:	f441 0170 	orr.w	r1, r1, #15728640	; 0xf00000
 800041c:	f04f 0000 	mov.w	r0, #0
 8000420:	bd30      	pop	{r4, r5, pc}
 8000422:	ea7f 5c64 	mvns.w	ip, r4, asr #21
 8000426:	bf1a      	itte	ne
 8000428:	4619      	movne	r1, r3
 800042a:	4610      	movne	r0, r2
 800042c:	ea7f 5c65 	mvnseq.w	ip, r5, asr #21
 8000430:	bf1c      	itt	ne
 8000432:	460b      	movne	r3, r1
 8000434:	4602      	movne	r2, r0
 8000436:	ea50 3401 	orrs.w	r4, r0, r1, lsl #12
 800043a:	bf06      	itte	eq
 800043c:	ea52 3503 	orrseq.w	r5, r2, r3, lsl #12
 8000440:	ea91 0f03 	teqeq	r1, r3
 8000444:	f441 2100 	orrne.w	r1, r1, #524288	; 0x80000
 8000448:	bd30      	pop	{r4, r5, pc}
 800044a:	bf00      	nop

0800044c <__aeabi_ui2d>:
 800044c:	f090 0f00 	teq	r0, #0
 8000450:	bf04      	itt	eq
 8000452:	2100      	moveq	r1, #0
 8000454:	4770      	bxeq	lr
 8000456:	b530      	push	{r4, r5, lr}
 8000458:	f44f 6480 	mov.w	r4, #1024	; 0x400
 800045c:	f104 0432 	add.w	r4, r4, #50	; 0x32
 8000460:	f04f 0500 	mov.w	r5, #0
 8000464:	f04f 0100 	mov.w	r1, #0
 8000468:	e750      	b.n	800030c <__adddf3+0x138>
 800046a:	bf00      	nop

0800046c <__aeabi_i2d>:
 800046c:	f090 0f00 	teq	r0, #0
 8000470:	bf04      	itt	eq
 8000472:	2100      	moveq	r1, #0
 8000474:	4770      	bxeq	lr
 8000476:	b530      	push	{r4, r5, lr}
 8000478:	f44f 6480 	mov.w	r4, #1024	; 0x400
 800047c:	f104 0432 	add.w	r4, r4, #50	; 0x32
 8000480:	f010 4500 	ands.w	r5, r0, #2147483648	; 0x80000000
 8000484:	bf48      	it	mi
 8000486:	4240      	negmi	r0, r0
 8000488:	f04f 0100 	mov.w	r1, #0
 800048c:	e73e      	b.n	800030c <__adddf3+0x138>
 800048e:	bf00      	nop

08000490 <__aeabi_f2d>:
 8000490:	0042      	lsls	r2, r0, #1
 8000492:	ea4f 01e2 	mov.w	r1, r2, asr #3
 8000496:	ea4f 0131 	mov.w	r1, r1, rrx
 800049a:	ea4f 7002 	mov.w	r0, r2, lsl #28
 800049e:	bf1f      	itttt	ne
 80004a0:	f012 437f 	andsne.w	r3, r2, #4278190080	; 0xff000000
 80004a4:	f093 4f7f 	teqne	r3, #4278190080	; 0xff000000
 80004a8:	f081 5160 	eorne.w	r1, r1, #939524096	; 0x38000000
 80004ac:	4770      	bxne	lr
 80004ae:	f032 427f 	bics.w	r2, r2, #4278190080	; 0xff000000
 80004b2:	bf08      	it	eq
 80004b4:	4770      	bxeq	lr
 80004b6:	f093 4f7f 	teq	r3, #4278190080	; 0xff000000
 80004ba:	bf04      	itt	eq
 80004bc:	f441 2100 	orreq.w	r1, r1, #524288	; 0x80000
 80004c0:	4770      	bxeq	lr
 80004c2:	b530      	push	{r4, r5, lr}
 80004c4:	f44f 7460 	mov.w	r4, #896	; 0x380
 80004c8:	f001 4500 	and.w	r5, r1, #2147483648	; 0x80000000
 80004cc:	f021 4100 	bic.w	r1, r1, #2147483648	; 0x80000000
 80004d0:	e71c      	b.n	800030c <__adddf3+0x138>
 80004d2:	bf00      	nop

080004d4 <__aeabi_ul2d>:
 80004d4:	ea50 0201 	orrs.w	r2, r0, r1
 80004d8:	bf08      	it	eq
 80004da:	4770      	bxeq	lr
 80004dc:	b530      	push	{r4, r5, lr}
 80004de:	f04f 0500 	mov.w	r5, #0
 80004e2:	e00a      	b.n	80004fa <__aeabi_l2d+0x16>

080004e4 <__aeabi_l2d>:
 80004e4:	ea50 0201 	orrs.w	r2, r0, r1
 80004e8:	bf08      	it	eq
 80004ea:	4770      	bxeq	lr
 80004ec:	b530      	push	{r4, r5, lr}
 80004ee:	f011 4500 	ands.w	r5, r1, #2147483648	; 0x80000000
 80004f2:	d502      	bpl.n	80004fa <__aeabi_l2d+0x16>
 80004f4:	4240      	negs	r0, r0
 80004f6:	eb61 0141 	sbc.w	r1, r1, r1, lsl #1
 80004fa:	f44f 6480 	mov.w	r4, #1024	; 0x400
 80004fe:	f104 0432 	add.w	r4, r4, #50	; 0x32
 8000502:	ea5f 5c91 	movs.w	ip, r1, lsr #22
 8000506:	f43f aed8 	beq.w	80002ba <__adddf3+0xe6>
 800050a:	f04f 0203 	mov.w	r2, #3
 800050e:	ea5f 0cdc 	movs.w	ip, ip, lsr #3
 8000512:	bf18      	it	ne
 8000514:	3203      	addne	r2, #3
 8000516:	ea5f 0cdc 	movs.w	ip, ip, lsr #3
 800051a:	bf18      	it	ne
 800051c:	3203      	addne	r2, #3
 800051e:	eb02 02dc 	add.w	r2, r2, ip, lsr #3
 8000522:	f1c2 0320 	rsb	r3, r2, #32
 8000526:	fa00 fc03 	lsl.w	ip, r0, r3
 800052a:	fa20 f002 	lsr.w	r0, r0, r2
 800052e:	fa01 fe03 	lsl.w	lr, r1, r3
 8000532:	ea40 000e 	orr.w	r0, r0, lr
 8000536:	fa21 f102 	lsr.w	r1, r1, r2
 800053a:	4414      	add	r4, r2
 800053c:	e6bd      	b.n	80002ba <__adddf3+0xe6>
 800053e:	bf00      	nop

08000540 <__aeabi_dmul>:
 8000540:	b570      	push	{r4, r5, r6, lr}
 8000542:	f04f 0cff 	mov.w	ip, #255	; 0xff
 8000546:	f44c 6ce0 	orr.w	ip, ip, #1792	; 0x700
 800054a:	ea1c 5411 	ands.w	r4, ip, r1, lsr #20
 800054e:	bf1d      	ittte	ne
 8000550:	ea1c 5513 	andsne.w	r5, ip, r3, lsr #20
 8000554:	ea94 0f0c 	teqne	r4, ip
 8000558:	ea95 0f0c 	teqne	r5, ip
 800055c:	f000 f8de 	bleq	800071c <__aeabi_dmul+0x1dc>
 8000560:	442c      	add	r4, r5
 8000562:	ea81 0603 	eor.w	r6, r1, r3
 8000566:	ea21 514c 	bic.w	r1, r1, ip, lsl #21
 800056a:	ea23 534c 	bic.w	r3, r3, ip, lsl #21
 800056e:	ea50 3501 	orrs.w	r5, r0, r1, lsl #12
 8000572:	bf18      	it	ne
 8000574:	ea52 3503 	orrsne.w	r5, r2, r3, lsl #12
 8000578:	f441 1180 	orr.w	r1, r1, #1048576	; 0x100000
 800057c:	f443 1380 	orr.w	r3, r3, #1048576	; 0x100000
 8000580:	d038      	beq.n	80005f4 <__aeabi_dmul+0xb4>
 8000582:	fba0 ce02 	umull	ip, lr, r0, r2
 8000586:	f04f 0500 	mov.w	r5, #0
 800058a:	fbe1 e502 	umlal	lr, r5, r1, r2
 800058e:	f006 4200 	and.w	r2, r6, #2147483648	; 0x80000000
 8000592:	fbe0 e503 	umlal	lr, r5, r0, r3
 8000596:	f04f 0600 	mov.w	r6, #0
 800059a:	fbe1 5603 	umlal	r5, r6, r1, r3
 800059e:	f09c 0f00 	teq	ip, #0
 80005a2:	bf18      	it	ne
 80005a4:	f04e 0e01 	orrne.w	lr, lr, #1
 80005a8:	f1a4 04ff 	sub.w	r4, r4, #255	; 0xff
 80005ac:	f5b6 7f00 	cmp.w	r6, #512	; 0x200
 80005b0:	f564 7440 	sbc.w	r4, r4, #768	; 0x300
 80005b4:	d204      	bcs.n	80005c0 <__aeabi_dmul+0x80>
 80005b6:	ea5f 0e4e 	movs.w	lr, lr, lsl #1
 80005ba:	416d      	adcs	r5, r5
 80005bc:	eb46 0606 	adc.w	r6, r6, r6
 80005c0:	ea42 21c6 	orr.w	r1, r2, r6, lsl #11
 80005c4:	ea41 5155 	orr.w	r1, r1, r5, lsr #21
 80005c8:	ea4f 20c5 	mov.w	r0, r5, lsl #11
 80005cc:	ea40 505e 	orr.w	r0, r0, lr, lsr #21
 80005d0:	ea4f 2ece 	mov.w	lr, lr, lsl #11
 80005d4:	f1b4 0cfd 	subs.w	ip, r4, #253	; 0xfd
 80005d8:	bf88      	it	hi
 80005da:	f5bc 6fe0 	cmphi.w	ip, #1792	; 0x700
 80005de:	d81e      	bhi.n	800061e <__aeabi_dmul+0xde>
 80005e0:	f1be 4f00 	cmp.w	lr, #2147483648	; 0x80000000
 80005e4:	bf08      	it	eq
 80005e6:	ea5f 0e50 	movseq.w	lr, r0, lsr #1
 80005ea:	f150 0000 	adcs.w	r0, r0, #0
 80005ee:	eb41 5104 	adc.w	r1, r1, r4, lsl #20
 80005f2:	bd70      	pop	{r4, r5, r6, pc}
 80005f4:	f006 4600 	and.w	r6, r6, #2147483648	; 0x80000000
 80005f8:	ea46 0101 	orr.w	r1, r6, r1
 80005fc:	ea40 0002 	orr.w	r0, r0, r2
 8000600:	ea81 0103 	eor.w	r1, r1, r3
 8000604:	ebb4 045c 	subs.w	r4, r4, ip, lsr #1
 8000608:	bfc2      	ittt	gt
 800060a:	ebd4 050c 	rsbsgt	r5, r4, ip
 800060e:	ea41 5104 	orrgt.w	r1, r1, r4, lsl #20
 8000612:	bd70      	popgt	{r4, r5, r6, pc}
 8000614:	f441 1180 	orr.w	r1, r1, #1048576	; 0x100000
 8000618:	f04f 0e00 	mov.w	lr, #0
 800061c:	3c01      	subs	r4, #1
 800061e:	f300 80ab 	bgt.w	8000778 <__aeabi_dmul+0x238>
 8000622:	f114 0f36 	cmn.w	r4, #54	; 0x36
 8000626:	bfde      	ittt	le
 8000628:	2000      	movle	r0, #0
 800062a:	f001 4100 	andle.w	r1, r1, #2147483648	; 0x80000000
 800062e:	bd70      	pople	{r4, r5, r6, pc}
 8000630:	f1c4 0400 	rsb	r4, r4, #0
 8000634:	3c20      	subs	r4, #32
 8000636:	da35      	bge.n	80006a4 <__aeabi_dmul+0x164>
 8000638:	340c      	adds	r4, #12
 800063a:	dc1b      	bgt.n	8000674 <__aeabi_dmul+0x134>
 800063c:	f104 0414 	add.w	r4, r4, #20
 8000640:	f1c4 0520 	rsb	r5, r4, #32
 8000644:	fa00 f305 	lsl.w	r3, r0, r5
 8000648:	fa20 f004 	lsr.w	r0, r0, r4
 800064c:	fa01 f205 	lsl.w	r2, r1, r5
 8000650:	ea40 0002 	orr.w	r0, r0, r2
 8000654:	f001 4200 	and.w	r2, r1, #2147483648	; 0x80000000
 8000658:	f021 4100 	bic.w	r1, r1, #2147483648	; 0x80000000
 800065c:	eb10 70d3 	adds.w	r0, r0, r3, lsr #31
 8000660:	fa21 f604 	lsr.w	r6, r1, r4
 8000664:	eb42 0106 	adc.w	r1, r2, r6
 8000668:	ea5e 0e43 	orrs.w	lr, lr, r3, lsl #1
 800066c:	bf08      	it	eq
 800066e:	ea20 70d3 	biceq.w	r0, r0, r3, lsr #31
 8000672:	bd70      	pop	{r4, r5, r6, pc}
 8000674:	f1c4 040c 	rsb	r4, r4, #12
 8000678:	f1c4 0520 	rsb	r5, r4, #32
 800067c:	fa00 f304 	lsl.w	r3, r0, r4
 8000680:	fa20 f005 	lsr.w	r0, r0, r5
 8000684:	fa01 f204 	lsl.w	r2, r1, r4
 8000688:	ea40 0002 	orr.w	r0, r0, r2
 800068c:	f001 4100 	and.w	r1, r1, #2147483648	; 0x80000000
 8000690:	eb10 70d3 	adds.w	r0, r0, r3, lsr #31
 8000694:	f141 0100 	adc.w	r1, r1, #0
 8000698:	ea5e 0e43 	orrs.w	lr, lr, r3, lsl #1
 800069c:	bf08      	it	eq
 800069e:	ea20 70d3 	biceq.w	r0, r0, r3, lsr #31
 80006a2:	bd70      	pop	{r4, r5, r6, pc}
 80006a4:	f1c4 0520 	rsb	r5, r4, #32
 80006a8:	fa00 f205 	lsl.w	r2, r0, r5
 80006ac:	ea4e 0e02 	orr.w	lr, lr, r2
 80006b0:	fa20 f304 	lsr.w	r3, r0, r4
 80006b4:	fa01 f205 	lsl.w	r2, r1, r5
 80006b8:	ea43 0302 	orr.w	r3, r3, r2
 80006bc:	fa21 f004 	lsr.w	r0, r1, r4
 80006c0:	f001 4100 	and.w	r1, r1, #2147483648	; 0x80000000
 80006c4:	fa21 f204 	lsr.w	r2, r1, r4
 80006c8:	ea20 0002 	bic.w	r0, r0, r2
 80006cc:	eb00 70d3 	add.w	r0, r0, r3, lsr #31
 80006d0:	ea5e 0e43 	orrs.w	lr, lr, r3, lsl #1
 80006d4:	bf08      	it	eq
 80006d6:	ea20 70d3 	biceq.w	r0, r0, r3, lsr #31
 80006da:	bd70      	pop	{r4, r5, r6, pc}
 80006dc:	f094 0f00 	teq	r4, #0
 80006e0:	d10f      	bne.n	8000702 <__aeabi_dmul+0x1c2>
 80006e2:	f001 4600 	and.w	r6, r1, #2147483648	; 0x80000000
 80006e6:	0040      	lsls	r0, r0, #1
 80006e8:	eb41 0101 	adc.w	r1, r1, r1
 80006ec:	f411 1f80 	tst.w	r1, #1048576	; 0x100000
 80006f0:	bf08      	it	eq
 80006f2:	3c01      	subeq	r4, #1
 80006f4:	d0f7      	beq.n	80006e6 <__aeabi_dmul+0x1a6>
 80006f6:	ea41 0106 	orr.w	r1, r1, r6
 80006fa:	f095 0f00 	teq	r5, #0
 80006fe:	bf18      	it	ne
 8000700:	4770      	bxne	lr
 8000702:	f003 4600 	and.w	r6, r3, #2147483648	; 0x80000000
 8000706:	0052      	lsls	r2, r2, #1
 8000708:	eb43 0303 	adc.w	r3, r3, r3
 800070c:	f413 1f80 	tst.w	r3, #1048576	; 0x100000
 8000710:	bf08      	it	eq
 8000712:	3d01      	subeq	r5, #1
 8000714:	d0f7      	beq.n	8000706 <__aeabi_dmul+0x1c6>
 8000716:	ea43 0306 	orr.w	r3, r3, r6
 800071a:	4770      	bx	lr
 800071c:	ea94 0f0c 	teq	r4, ip
 8000720:	ea0c 5513 	and.w	r5, ip, r3, lsr #20
 8000724:	bf18      	it	ne
 8000726:	ea95 0f0c 	teqne	r5, ip
 800072a:	d00c      	beq.n	8000746 <__aeabi_dmul+0x206>
 800072c:	ea50 0641 	orrs.w	r6, r0, r1, lsl #1
 8000730:	bf18      	it	ne
 8000732:	ea52 0643 	orrsne.w	r6, r2, r3, lsl #1
 8000736:	d1d1      	bne.n	80006dc <__aeabi_dmul+0x19c>
 8000738:	ea81 0103 	eor.w	r1, r1, r3
 800073c:	f001 4100 	and.w	r1, r1, #2147483648	; 0x80000000
 8000740:	f04f 0000 	mov.w	r0, #0
 8000744:	bd70      	pop	{r4, r5, r6, pc}
 8000746:	ea50 0641 	orrs.w	r6, r0, r1, lsl #1
 800074a:	bf06      	itte	eq
 800074c:	4610      	moveq	r0, r2
 800074e:	4619      	moveq	r1, r3
 8000750:	ea52 0643 	orrsne.w	r6, r2, r3, lsl #1
 8000754:	d019      	beq.n	800078a <__aeabi_dmul+0x24a>
 8000756:	ea94 0f0c 	teq	r4, ip
 800075a:	d102      	bne.n	8000762 <__aeabi_dmul+0x222>
 800075c:	ea50 3601 	orrs.w	r6, r0, r1, lsl #12
 8000760:	d113      	bne.n	800078a <__aeabi_dmul+0x24a>
 8000762:	ea95 0f0c 	teq	r5, ip
 8000766:	d105      	bne.n	8000774 <__aeabi_dmul+0x234>
 8000768:	ea52 3603 	orrs.w	r6, r2, r3, lsl #12
 800076c:	bf1c      	itt	ne
 800076e:	4610      	movne	r0, r2
 8000770:	4619      	movne	r1, r3
 8000772:	d10a      	bne.n	800078a <__aeabi_dmul+0x24a>
 8000774:	ea81 0103 	eor.w	r1, r1, r3
 8000778:	f001 4100 	and.w	r1, r1, #2147483648	; 0x80000000
 800077c:	f041 41fe 	orr.w	r1, r1, #2130706432	; 0x7f000000
 8000780:	f441 0170 	orr.w	r1, r1, #15728640	; 0xf00000
 8000784:	f04f 0000 	mov.w	r0, #0
 8000788:	bd70      	pop	{r4, r5, r6, pc}
 800078a:	f041 41fe 	orr.w	r1, r1, #2130706432	; 0x7f000000
 800078e:	f441 0178 	orr.w	r1, r1, #16252928	; 0xf80000
 8000792:	bd70      	pop	{r4, r5, r6, pc}

08000794 <__aeabi_ddiv>:
 8000794:	b570      	push	{r4, r5, r6, lr}
 8000796:	f04f 0cff 	mov.w	ip, #255	; 0xff
 800079a:	f44c 6ce0 	orr.w	ip, ip, #1792	; 0x700
 800079e:	ea1c 5411 	ands.w	r4, ip, r1, lsr #20
 80007a2:	bf1d      	ittte	ne
 80007a4:	ea1c 5513 	andsne.w	r5, ip, r3, lsr #20
 80007a8:	ea94 0f0c 	teqne	r4, ip
 80007ac:	ea95 0f0c 	teqne	r5, ip
 80007b0:	f000 f8a7 	bleq	8000902 <__aeabi_ddiv+0x16e>
 80007b4:	eba4 0405 	sub.w	r4, r4, r5
 80007b8:	ea81 0e03 	eor.w	lr, r1, r3
 80007bc:	ea52 3503 	orrs.w	r5, r2, r3, lsl #12
 80007c0:	ea4f 3101 	mov.w	r1, r1, lsl #12
 80007c4:	f000 8088 	beq.w	80008d8 <__aeabi_ddiv+0x144>
 80007c8:	ea4f 3303 	mov.w	r3, r3, lsl #12
 80007cc:	f04f 5580 	mov.w	r5, #268435456	; 0x10000000
 80007d0:	ea45 1313 	orr.w	r3, r5, r3, lsr #4
 80007d4:	ea43 6312 	orr.w	r3, r3, r2, lsr #24
 80007d8:	ea4f 2202 	mov.w	r2, r2, lsl #8
 80007dc:	ea45 1511 	orr.w	r5, r5, r1, lsr #4
 80007e0:	ea45 6510 	orr.w	r5, r5, r0, lsr #24
 80007e4:	ea4f 2600 	mov.w	r6, r0, lsl #8
 80007e8:	f00e 4100 	and.w	r1, lr, #2147483648	; 0x80000000
 80007ec:	429d      	cmp	r5, r3
 80007ee:	bf08      	it	eq
 80007f0:	4296      	cmpeq	r6, r2
 80007f2:	f144 04fd 	adc.w	r4, r4, #253	; 0xfd
 80007f6:	f504 7440 	add.w	r4, r4, #768	; 0x300
 80007fa:	d202      	bcs.n	8000802 <__aeabi_ddiv+0x6e>
 80007fc:	085b      	lsrs	r3, r3, #1
 80007fe:	ea4f 0232 	mov.w	r2, r2, rrx
 8000802:	1ab6      	subs	r6, r6, r2
 8000804:	eb65 0503 	sbc.w	r5, r5, r3
 8000808:	085b      	lsrs	r3, r3, #1
 800080a:	ea4f 0232 	mov.w	r2, r2, rrx
 800080e:	f44f 1080 	mov.w	r0, #1048576	; 0x100000
 8000812:	f44f 2c00 	mov.w	ip, #524288	; 0x80000
 8000816:	ebb6 0e02 	subs.w	lr, r6, r2
 800081a:	eb75 0e03 	sbcs.w	lr, r5, r3
 800081e:	bf22      	ittt	cs
 8000820:	1ab6      	subcs	r6, r6, r2
 8000822:	4675      	movcs	r5, lr
 8000824:	ea40 000c 	orrcs.w	r0, r0, ip
 8000828:	085b      	lsrs	r3, r3, #1
 800082a:	ea4f 0232 	mov.w	r2, r2, rrx
 800082e:	ebb6 0e02 	subs.w	lr, r6, r2
 8000832:	eb75 0e03 	sbcs.w	lr, r5, r3
 8000836:	bf22      	ittt	cs
 8000838:	1ab6      	subcs	r6, r6, r2
 800083a:	4675      	movcs	r5, lr
 800083c:	ea40 005c 	orrcs.w	r0, r0, ip, lsr #1
 8000840:	085b      	lsrs	r3, r3, #1
 8000842:	ea4f 0232 	mov.w	r2, r2, rrx
 8000846:	ebb6 0e02 	subs.w	lr, r6, r2
 800084a:	eb75 0e03 	sbcs.w	lr, r5, r3
 800084e:	bf22      	ittt	cs
 8000850:	1ab6      	subcs	r6, r6, r2
 8000852:	4675      	movcs	r5, lr
 8000854:	ea40 009c 	orrcs.w	r0, r0, ip, lsr #2
 8000858:	085b      	lsrs	r3, r3, #1
 800085a:	ea4f 0232 	mov.w	r2, r2, rrx
 800085e:	ebb6 0e02 	subs.w	lr, r6, r2
 8000862:	eb75 0e03 	sbcs.w	lr, r5, r3
 8000866:	bf22      	ittt	cs
 8000868:	1ab6      	subcs	r6, r6, r2
 800086a:	4675      	movcs	r5, lr
 800086c:	ea40 00dc 	orrcs.w	r0, r0, ip, lsr #3
 8000870:	ea55 0e06 	orrs.w	lr, r5, r6
 8000874:	d018      	beq.n	80008a8 <__aeabi_ddiv+0x114>
 8000876:	ea4f 1505 	mov.w	r5, r5, lsl #4
 800087a:	ea45 7516 	orr.w	r5, r5, r6, lsr #28
 800087e:	ea4f 1606 	mov.w	r6, r6, lsl #4
 8000882:	ea4f 03c3 	mov.w	r3, r3, lsl #3
 8000886:	ea43 7352 	orr.w	r3, r3, r2, lsr #29
 800088a:	ea4f 02c2 	mov.w	r2, r2, lsl #3
 800088e:	ea5f 1c1c 	movs.w	ip, ip, lsr #4
 8000892:	d1c0      	bne.n	8000816 <__aeabi_ddiv+0x82>
 8000894:	f411 1f80 	tst.w	r1, #1048576	; 0x100000
 8000898:	d10b      	bne.n	80008b2 <__aeabi_ddiv+0x11e>
 800089a:	ea41 0100 	orr.w	r1, r1, r0
 800089e:	f04f 0000 	mov.w	r0, #0
 80008a2:	f04f 4c00 	mov.w	ip, #2147483648	; 0x80000000
 80008a6:	e7b6      	b.n	8000816 <__aeabi_ddiv+0x82>
 80008a8:	f411 1f80 	tst.w	r1, #1048576	; 0x100000
 80008ac:	bf04      	itt	eq
 80008ae:	4301      	orreq	r1, r0
 80008b0:	2000      	moveq	r0, #0
 80008b2:	f1b4 0cfd 	subs.w	ip, r4, #253	; 0xfd
 80008b6:	bf88      	it	hi
 80008b8:	f5bc 6fe0 	cmphi.w	ip, #1792	; 0x700
 80008bc:	f63f aeaf 	bhi.w	800061e <__aeabi_dmul+0xde>
 80008c0:	ebb5 0c03 	subs.w	ip, r5, r3
 80008c4:	bf04      	itt	eq
 80008c6:	ebb6 0c02 	subseq.w	ip, r6, r2
 80008ca:	ea5f 0c50 	movseq.w	ip, r0, lsr #1
 80008ce:	f150 0000 	adcs.w	r0, r0, #0
 80008d2:	eb41 5104 	adc.w	r1, r1, r4, lsl #20
 80008d6:	bd70      	pop	{r4, r5, r6, pc}
 80008d8:	f00e 4e00 	and.w	lr, lr, #2147483648	; 0x80000000
 80008dc:	ea4e 3111 	orr.w	r1, lr, r1, lsr #12
 80008e0:	eb14 045c 	adds.w	r4, r4, ip, lsr #1
 80008e4:	bfc2      	ittt	gt
 80008e6:	ebd4 050c 	rsbsgt	r5, r4, ip
 80008ea:	ea41 5104 	orrgt.w	r1, r1, r4, lsl #20
 80008ee:	bd70      	popgt	{r4, r5, r6, pc}
 80008f0:	f441 1180 	orr.w	r1, r1, #1048576	; 0x100000
 80008f4:	f04f 0e00 	mov.w	lr, #0
 80008f8:	3c01      	subs	r4, #1
 80008fa:	e690      	b.n	800061e <__aeabi_dmul+0xde>
 80008fc:	ea45 0e06 	orr.w	lr, r5, r6
 8000900:	e68d      	b.n	800061e <__aeabi_dmul+0xde>
 8000902:	ea0c 5513 	and.w	r5, ip, r3, lsr #20
 8000906:	ea94 0f0c 	teq	r4, ip
 800090a:	bf08      	it	eq
 800090c:	ea95 0f0c 	teqeq	r5, ip
 8000910:	f43f af3b 	beq.w	800078a <__aeabi_dmul+0x24a>
 8000914:	ea94 0f0c 	teq	r4, ip
 8000918:	d10a      	bne.n	8000930 <__aeabi_ddiv+0x19c>
 800091a:	ea50 3401 	orrs.w	r4, r0, r1, lsl #12
 800091e:	f47f af34 	bne.w	800078a <__aeabi_dmul+0x24a>
 8000922:	ea95 0f0c 	teq	r5, ip
 8000926:	f47f af25 	bne.w	8000774 <__aeabi_dmul+0x234>
 800092a:	4610      	mov	r0, r2
 800092c:	4619      	mov	r1, r3
 800092e:	e72c      	b.n	800078a <__aeabi_dmul+0x24a>
 8000930:	ea95 0f0c 	teq	r5, ip
 8000934:	d106      	bne.n	8000944 <__aeabi_ddiv+0x1b0>
 8000936:	ea52 3503 	orrs.w	r5, r2, r3, lsl #12
 800093a:	f43f aefd 	beq.w	8000738 <__aeabi_dmul+0x1f8>
 800093e:	4610      	mov	r0, r2
 8000940:	4619      	mov	r1, r3
 8000942:	e722      	b.n	800078a <__aeabi_dmul+0x24a>
 8000944:	ea50 0641 	orrs.w	r6, r0, r1, lsl #1
 8000948:	bf18      	it	ne
 800094a:	ea52 0643 	orrsne.w	r6, r2, r3, lsl #1
 800094e:	f47f aec5 	bne.w	80006dc <__aeabi_dmul+0x19c>
 8000952:	ea50 0441 	orrs.w	r4, r0, r1, lsl #1
 8000956:	f47f af0d 	bne.w	8000774 <__aeabi_dmul+0x234>
 800095a:	ea52 0543 	orrs.w	r5, r2, r3, lsl #1
 800095e:	f47f aeeb 	bne.w	8000738 <__aeabi_dmul+0x1f8>
 8000962:	e712      	b.n	800078a <__aeabi_dmul+0x24a>

08000964 <__gedf2>:
 8000964:	f04f 3cff 	mov.w	ip, #4294967295
 8000968:	e006      	b.n	8000978 <__cmpdf2+0x4>
 800096a:	bf00      	nop

0800096c <__ledf2>:
 800096c:	f04f 0c01 	mov.w	ip, #1
 8000970:	e002      	b.n	8000978 <__cmpdf2+0x4>
 8000972:	bf00      	nop

08000974 <__cmpdf2>:
 8000974:	f04f 0c01 	mov.w	ip, #1
 8000978:	f84d cd04 	str.w	ip, [sp, #-4]!
 800097c:	ea4f 0c41 	mov.w	ip, r1, lsl #1
 8000980:	ea7f 5c6c 	mvns.w	ip, ip, asr #21
 8000984:	ea4f 0c43 	mov.w	ip, r3, lsl #1
 8000988:	bf18      	it	ne
 800098a:	ea7f 5c6c 	mvnsne.w	ip, ip, asr #21
 800098e:	d01b      	beq.n	80009c8 <__cmpdf2+0x54>
 8000990:	b001      	add	sp, #4
 8000992:	ea50 0c41 	orrs.w	ip, r0, r1, lsl #1
 8000996:	bf0c      	ite	eq
 8000998:	ea52 0c43 	orrseq.w	ip, r2, r3, lsl #1
 800099c:	ea91 0f03 	teqne	r1, r3
 80009a0:	bf02      	ittt	eq
 80009a2:	ea90 0f02 	teqeq	r0, r2
 80009a6:	2000      	moveq	r0, #0
 80009a8:	4770      	bxeq	lr
 80009aa:	f110 0f00 	cmn.w	r0, #0
 80009ae:	ea91 0f03 	teq	r1, r3
 80009b2:	bf58      	it	pl
 80009b4:	4299      	cmppl	r1, r3
 80009b6:	bf08      	it	eq
 80009b8:	4290      	cmpeq	r0, r2
 80009ba:	bf2c      	ite	cs
 80009bc:	17d8      	asrcs	r0, r3, #31
 80009be:	ea6f 70e3 	mvncc.w	r0, r3, asr #31
 80009c2:	f040 0001 	orr.w	r0, r0, #1
 80009c6:	4770      	bx	lr
 80009c8:	ea4f 0c41 	mov.w	ip, r1, lsl #1
 80009cc:	ea7f 5c6c 	mvns.w	ip, ip, asr #21
 80009d0:	d102      	bne.n	80009d8 <__cmpdf2+0x64>
 80009d2:	ea50 3c01 	orrs.w	ip, r0, r1, lsl #12
 80009d6:	d107      	bne.n	80009e8 <__cmpdf2+0x74>
 80009d8:	ea4f 0c43 	mov.w	ip, r3, lsl #1
 80009dc:	ea7f 5c6c 	mvns.w	ip, ip, asr #21
 80009e0:	d1d6      	bne.n	8000990 <__cmpdf2+0x1c>
 80009e2:	ea52 3c03 	orrs.w	ip, r2, r3, lsl #12
 80009e6:	d0d3      	beq.n	8000990 <__cmpdf2+0x1c>
 80009e8:	f85d 0b04 	ldr.w	r0, [sp], #4
 80009ec:	4770      	bx	lr
 80009ee:	bf00      	nop

080009f0 <__aeabi_cdrcmple>:
 80009f0:	4684      	mov	ip, r0
 80009f2:	4610      	mov	r0, r2
 80009f4:	4662      	mov	r2, ip
 80009f6:	468c      	mov	ip, r1
 80009f8:	4619      	mov	r1, r3
 80009fa:	4663      	mov	r3, ip
 80009fc:	e000      	b.n	8000a00 <__aeabi_cdcmpeq>
 80009fe:	bf00      	nop

08000a00 <__aeabi_cdcmpeq>:
 8000a00:	b501      	push	{r0, lr}
 8000a02:	f7ff ffb7 	bl	8000974 <__cmpdf2>
 8000a06:	2800      	cmp	r0, #0
 8000a08:	bf48      	it	mi
 8000a0a:	f110 0f00 	cmnmi.w	r0, #0
 8000a0e:	bd01      	pop	{r0, pc}

08000a10 <__aeabi_dcmpeq>:
 8000a10:	f84d ed08 	str.w	lr, [sp, #-8]!
 8000a14:	f7ff fff4 	bl	8000a00 <__aeabi_cdcmpeq>
 8000a18:	bf0c      	ite	eq
 8000a1a:	2001      	moveq	r0, #1
 8000a1c:	2000      	movne	r0, #0
 8000a1e:	f85d fb08 	ldr.w	pc, [sp], #8
 8000a22:	bf00      	nop

08000a24 <__aeabi_dcmplt>:
 8000a24:	f84d ed08 	str.w	lr, [sp, #-8]!
 8000a28:	f7ff ffea 	bl	8000a00 <__aeabi_cdcmpeq>
 8000a2c:	bf34      	ite	cc
 8000a2e:	2001      	movcc	r0, #1
 8000a30:	2000      	movcs	r0, #0
 8000a32:	f85d fb08 	ldr.w	pc, [sp], #8
 8000a36:	bf00      	nop

08000a38 <__aeabi_dcmple>:
 8000a38:	f84d ed08 	str.w	lr, [sp, #-8]!
 8000a3c:	f7ff ffe0 	bl	8000a00 <__aeabi_cdcmpeq>
 8000a40:	bf94      	ite	ls
 8000a42:	2001      	movls	r0, #1
 8000a44:	2000      	movhi	r0, #0
 8000a46:	f85d fb08 	ldr.w	pc, [sp], #8
 8000a4a:	bf00      	nop

08000a4c <__aeabi_dcmpge>:
 8000a4c:	f84d ed08 	str.w	lr, [sp, #-8]!
 8000a50:	f7ff ffce 	bl	80009f0 <__aeabi_cdrcmple>
 8000a54:	bf94      	ite	ls
 8000a56:	2001      	movls	r0, #1
 8000a58:	2000      	movhi	r0, #0
 8000a5a:	f85d fb08 	ldr.w	pc, [sp], #8
 8000a5e:	bf00      	nop

08000a60 <__aeabi_dcmpgt>:
 8000a60:	f84d ed08 	str.w	lr, [sp, #-8]!
 8000a64:	f7ff ffc4 	bl	80009f0 <__aeabi_cdrcmple>
 8000a68:	bf34      	ite	cc
 8000a6a:	2001      	movcc	r0, #1
 8000a6c:	2000      	movcs	r0, #0
 8000a6e:	f85d fb08 	ldr.w	pc, [sp], #8
 8000a72:	bf00      	nop

08000a74 <__aeabi_d2iz>:
 8000a74:	ea4f 0241 	mov.w	r2, r1, lsl #1
 8000a78:	f512 1200 	adds.w	r2, r2, #2097152	; 0x200000
 8000a7c:	d215      	bcs.n	8000aaa <__aeabi_d2iz+0x36>
 8000a7e:	d511      	bpl.n	8000aa4 <__aeabi_d2iz+0x30>
 8000a80:	f46f 7378 	mvn.w	r3, #992	; 0x3e0
 8000a84:	ebb3 5262 	subs.w	r2, r3, r2, asr #21
 8000a88:	d912      	bls.n	8000ab0 <__aeabi_d2iz+0x3c>
 8000a8a:	ea4f 23c1 	mov.w	r3, r1, lsl #11
 8000a8e:	f043 4300 	orr.w	r3, r3, #2147483648	; 0x80000000
 8000a92:	ea43 5350 	orr.w	r3, r3, r0, lsr #21
 8000a96:	f011 4f00 	tst.w	r1, #2147483648	; 0x80000000
 8000a9a:	fa23 f002 	lsr.w	r0, r3, r2
 8000a9e:	bf18      	it	ne
 8000aa0:	4240      	negne	r0, r0
 8000aa2:	4770      	bx	lr
 8000aa4:	f04f 0000 	mov.w	r0, #0
 8000aa8:	4770      	bx	lr
 8000aaa:	ea50 3001 	orrs.w	r0, r0, r1, lsl #12
 8000aae:	d105      	bne.n	8000abc <__aeabi_d2iz+0x48>
 8000ab0:	f011 4000 	ands.w	r0, r1, #2147483648	; 0x80000000
 8000ab4:	bf08      	it	eq
 8000ab6:	f06f 4000 	mvneq.w	r0, #2147483648	; 0x80000000
 8000aba:	4770      	bx	lr
 8000abc:	f04f 0000 	mov.w	r0, #0
 8000ac0:	4770      	bx	lr
 8000ac2:	bf00      	nop

08000ac4 <__aeabi_d2uiz>:
 8000ac4:	004a      	lsls	r2, r1, #1
 8000ac6:	d211      	bcs.n	8000aec <__aeabi_d2uiz+0x28>
 8000ac8:	f512 1200 	adds.w	r2, r2, #2097152	; 0x200000
 8000acc:	d211      	bcs.n	8000af2 <__aeabi_d2uiz+0x2e>
 8000ace:	d50d      	bpl.n	8000aec <__aeabi_d2uiz+0x28>
 8000ad0:	f46f 7378 	mvn.w	r3, #992	; 0x3e0
 8000ad4:	ebb3 5262 	subs.w	r2, r3, r2, asr #21
 8000ad8:	d40e      	bmi.n	8000af8 <__aeabi_d2uiz+0x34>
 8000ada:	ea4f 23c1 	mov.w	r3, r1, lsl #11
 8000ade:	f043 4300 	orr.w	r3, r3, #2147483648	; 0x80000000
 8000ae2:	ea43 5350 	orr.w	r3, r3, r0, lsr #21
 8000ae6:	fa23 f002 	lsr.w	r0, r3, r2
 8000aea:	4770      	bx	lr
 8000aec:	f04f 0000 	mov.w	r0, #0
 8000af0:	4770      	bx	lr
 8000af2:	ea50 3001 	orrs.w	r0, r0, r1, lsl #12
 8000af6:	d102      	bne.n	8000afe <__aeabi_d2uiz+0x3a>
 8000af8:	f04f 30ff 	mov.w	r0, #4294967295
 8000afc:	4770      	bx	lr
 8000afe:	f04f 0000 	mov.w	r0, #0
 8000b02:	4770      	bx	lr

08000b04 <__aeabi_d2f>:
 8000b04:	ea4f 0241 	mov.w	r2, r1, lsl #1
 8000b08:	f1b2 43e0 	subs.w	r3, r2, #1879048192	; 0x70000000
 8000b0c:	bf24      	itt	cs
 8000b0e:	f5b3 1c00 	subscs.w	ip, r3, #2097152	; 0x200000
 8000b12:	f1dc 5cfe 	rsbscs	ip, ip, #532676608	; 0x1fc00000
 8000b16:	d90d      	bls.n	8000b34 <__aeabi_d2f+0x30>
 8000b18:	f001 4c00 	and.w	ip, r1, #2147483648	; 0x80000000
 8000b1c:	ea4f 02c0 	mov.w	r2, r0, lsl #3
 8000b20:	ea4c 7050 	orr.w	r0, ip, r0, lsr #29
 8000b24:	f1b2 4f00 	cmp.w	r2, #2147483648	; 0x80000000
 8000b28:	eb40 0083 	adc.w	r0, r0, r3, lsl #2
 8000b2c:	bf08      	it	eq
 8000b2e:	f020 0001 	biceq.w	r0, r0, #1
 8000b32:	4770      	bx	lr
 8000b34:	f011 4f80 	tst.w	r1, #1073741824	; 0x40000000
 8000b38:	d121      	bne.n	8000b7e <__aeabi_d2f+0x7a>
 8000b3a:	f113 7238 	adds.w	r2, r3, #48234496	; 0x2e00000
 8000b3e:	bfbc      	itt	lt
 8000b40:	f001 4000 	andlt.w	r0, r1, #2147483648	; 0x80000000
 8000b44:	4770      	bxlt	lr
 8000b46:	f441 1180 	orr.w	r1, r1, #1048576	; 0x100000
 8000b4a:	ea4f 5252 	mov.w	r2, r2, lsr #21
 8000b4e:	f1c2 0218 	rsb	r2, r2, #24
 8000b52:	f1c2 0c20 	rsb	ip, r2, #32
 8000b56:	fa10 f30c 	lsls.w	r3, r0, ip
 8000b5a:	fa20 f002 	lsr.w	r0, r0, r2
 8000b5e:	bf18      	it	ne
 8000b60:	f040 0001 	orrne.w	r0, r0, #1
 8000b64:	ea4f 23c1 	mov.w	r3, r1, lsl #11
 8000b68:	ea4f 23d3 	mov.w	r3, r3, lsr #11
 8000b6c:	fa03 fc0c 	lsl.w	ip, r3, ip
 8000b70:	ea40 000c 	orr.w	r0, r0, ip
 8000b74:	fa23 f302 	lsr.w	r3, r3, r2
 8000b78:	ea4f 0343 	mov.w	r3, r3, lsl #1
 8000b7c:	e7cc      	b.n	8000b18 <__aeabi_d2f+0x14>
 8000b7e:	ea7f 5362 	mvns.w	r3, r2, asr #21
 8000b82:	d107      	bne.n	8000b94 <__aeabi_d2f+0x90>
 8000b84:	ea50 3301 	orrs.w	r3, r0, r1, lsl #12
 8000b88:	bf1e      	ittt	ne
 8000b8a:	f04f 40fe 	movne.w	r0, #2130706432	; 0x7f000000
 8000b8e:	f440 0040 	orrne.w	r0, r0, #12582912	; 0xc00000
 8000b92:	4770      	bxne	lr
 8000b94:	f001 4000 	and.w	r0, r1, #2147483648	; 0x80000000
 8000b98:	f040 40fe 	orr.w	r0, r0, #2130706432	; 0x7f000000
 8000b9c:	f440 0000 	orr.w	r0, r0, #8388608	; 0x800000
 8000ba0:	4770      	bx	lr
 8000ba2:	bf00      	nop

08000ba4 <__NVIC_EnableIRQ>:
  \details Enables a device specific interrupt in the NVIC interrupt controller.
  \param [in]      IRQn  Device specific interrupt number.
  \note    IRQn must not be negative.
 */
__STATIC_INLINE void __NVIC_EnableIRQ(IRQn_Type IRQn)
{
 8000ba4:	b480      	push	{r7}
 8000ba6:	b083      	sub	sp, #12
 8000ba8:	af00      	add	r7, sp, #0
 8000baa:	4603      	mov	r3, r0
 8000bac:	71fb      	strb	r3, [r7, #7]
  if ((int32_t)(IRQn) >= 0)
 8000bae:	f997 3007 	ldrsb.w	r3, [r7, #7]
 8000bb2:	2b00      	cmp	r3, #0
 8000bb4:	db0b      	blt.n	8000bce <__NVIC_EnableIRQ+0x2a>
  {
    NVIC->ISER[(((uint32_t)IRQn) >> 5UL)] = (uint32_t)(1UL << (((uint32_t)IRQn) & 0x1FUL));
 8000bb6:	79fb      	ldrb	r3, [r7, #7]
 8000bb8:	f003 021f 	and.w	r2, r3, #31
 8000bbc:	4907      	ldr	r1, [pc, #28]	; (8000bdc <__NVIC_EnableIRQ+0x38>)
 8000bbe:	f997 3007 	ldrsb.w	r3, [r7, #7]
 8000bc2:	095b      	lsrs	r3, r3, #5
 8000bc4:	2001      	movs	r0, #1
 8000bc6:	fa00 f202 	lsl.w	r2, r0, r2
 8000bca:	f841 2023 	str.w	r2, [r1, r3, lsl #2]
  }
}
 8000bce:	bf00      	nop
 8000bd0:	370c      	adds	r7, #12
 8000bd2:	46bd      	mov	sp, r7
 8000bd4:	f85d 7b04 	ldr.w	r7, [sp], #4
 8000bd8:	4770      	bx	lr
 8000bda:	bf00      	nop
 8000bdc:	e000e100 	.word	0xe000e100

08000be0 <__NVIC_SetPriority>:
  \param [in]      IRQn  Interrupt number.
  \param [in]  priority  Priority to set.
  \note    The priority cannot be set for every processor exception.
 */
__STATIC_INLINE void __NVIC_SetPriority(IRQn_Type IRQn, uint32_t priority)
{
 8000be0:	b480      	push	{r7}
 8000be2:	b083      	sub	sp, #12
 8000be4:	af00      	add	r7, sp, #0
 8000be6:	4603      	mov	r3, r0
 8000be8:	6039      	str	r1, [r7, #0]
 8000bea:	71fb      	strb	r3, [r7, #7]
  if ((int32_t)(IRQn) >= 0)
 8000bec:	f997 3007 	ldrsb.w	r3, [r7, #7]
 8000bf0:	2b00      	cmp	r3, #0
 8000bf2:	db0a      	blt.n	8000c0a <__NVIC_SetPriority+0x2a>
  {
    NVIC->IP[((uint32_t)IRQn)]               = (uint8_t)((priority << (8U - __NVIC_PRIO_BITS)) & (uint32_t)0xFFUL);
 8000bf4:	683b      	ldr	r3, [r7, #0]
 8000bf6:	b2da      	uxtb	r2, r3
 8000bf8:	490c      	ldr	r1, [pc, #48]	; (8000c2c <__NVIC_SetPriority+0x4c>)
 8000bfa:	f997 3007 	ldrsb.w	r3, [r7, #7]
 8000bfe:	0112      	lsls	r2, r2, #4
 8000c00:	b2d2      	uxtb	r2, r2
 8000c02:	440b      	add	r3, r1
 8000c04:	f883 2300 	strb.w	r2, [r3, #768]	; 0x300
  }
  else
  {
    SCB->SHP[(((uint32_t)IRQn) & 0xFUL)-4UL] = (uint8_t)((priority << (8U - __NVIC_PRIO_BITS)) & (uint32_t)0xFFUL);
  }
}
 8000c08:	e00a      	b.n	8000c20 <__NVIC_SetPriority+0x40>
    SCB->SHP[(((uint32_t)IRQn) & 0xFUL)-4UL] = (uint8_t)((priority << (8U - __NVIC_PRIO_BITS)) & (uint32_t)0xFFUL);
 8000c0a:	683b      	ldr	r3, [r7, #0]
 8000c0c:	b2da      	uxtb	r2, r3
 8000c0e:	4908      	ldr	r1, [pc, #32]	; (8000c30 <__NVIC_SetPriority+0x50>)
 8000c10:	79fb      	ldrb	r3, [r7, #7]
 8000c12:	f003 030f 	and.w	r3, r3, #15
 8000c16:	3b04      	subs	r3, #4
 8000c18:	0112      	lsls	r2, r2, #4
 8000c1a:	b2d2      	uxtb	r2, r2
 8000c1c:	440b      	add	r3, r1
 8000c1e:	761a      	strb	r2, [r3, #24]
}
 8000c20:	bf00      	nop
 8000c22:	370c      	adds	r7, #12
 8000c24:	46bd      	mov	sp, r7
 8000c26:	f85d 7b04 	ldr.w	r7, [sp], #4
 8000c2a:	4770      	bx	lr
 8000c2c:	e000e100 	.word	0xe000e100
 8000c30:	e000ed00 	.word	0xe000ed00

08000c34 <main>:
int freq=0;
/******************************************/
/***				MAIN				***/
/******************************************/
int main(void)
{
 8000c34:	b580      	push	{r7, lr}
 8000c36:	af00      	add	r7, sp, #0

  set_sysclk_to_168();											// Set main clock to 168MHz
 8000c38:	f000 f984 	bl	8000f44 <set_sysclk_to_168>
  gpio_init();													// Set GPIO pins for pwm output
 8000c3c:	f000 f852 	bl	8000ce4 <gpio_init>
  timer1_init();
 8000c40:	f000 f88c 	bl	8000d5c <timer1_init>
  pwm_button_init();
 8000c44:	f000 f804 	bl	8000c50 <pwm_button_init>
  adc_init();
 8000c48:	f000 f920 	bl	8000e8c <adc_init>

  while(1){}
 8000c4c:	e7fe      	b.n	8000c4c <main+0x18>
	...

08000c50 <pwm_button_init>:

/******************************************/
/***			PWM Button Init				***/
/******************************************/
void pwm_button_init(void)
{
 8000c50:	b580      	push	{r7, lr}
 8000c52:	af00      	add	r7, sp, #0
	RCC->AHB1ENR |= ((1<<3)|1);									// Enable GPIOD and GPIOA clocks
 8000c54:	4b1f      	ldr	r3, [pc, #124]	; (8000cd4 <pwm_button_init+0x84>)
 8000c56:	6b1b      	ldr	r3, [r3, #48]	; 0x30
 8000c58:	4a1e      	ldr	r2, [pc, #120]	; (8000cd4 <pwm_button_init+0x84>)
 8000c5a:	f043 0309 	orr.w	r3, r3, #9
 8000c5e:	6313      	str	r3, [r2, #48]	; 0x30
	RCC->APB2ENR |= RCC_APB2ENR_SYSCFGEN;						// Enable EXTI registers
 8000c60:	4b1c      	ldr	r3, [pc, #112]	; (8000cd4 <pwm_button_init+0x84>)
 8000c62:	6c5b      	ldr	r3, [r3, #68]	; 0x44
 8000c64:	4a1b      	ldr	r2, [pc, #108]	; (8000cd4 <pwm_button_init+0x84>)
 8000c66:	f443 4380 	orr.w	r3, r3, #16384	; 0x4000
 8000c6a:	6453      	str	r3, [r2, #68]	; 0x44
	SYSCFG->EXTICR[0] = 0;										// Select A0 as EXTI source
 8000c6c:	4b1a      	ldr	r3, [pc, #104]	; (8000cd8 <pwm_button_init+0x88>)
 8000c6e:	2200      	movs	r2, #0
 8000c70:	609a      	str	r2, [r3, #8]

	EXTI->IMR = 1;												// Enable A0 channel interrupts
 8000c72:	4b1a      	ldr	r3, [pc, #104]	; (8000cdc <pwm_button_init+0x8c>)
 8000c74:	2201      	movs	r2, #1
 8000c76:	601a      	str	r2, [r3, #0]
	EXTI->RTSR |= 1;											// Rising Edge Detection
 8000c78:	4b18      	ldr	r3, [pc, #96]	; (8000cdc <pwm_button_init+0x8c>)
 8000c7a:	689b      	ldr	r3, [r3, #8]
 8000c7c:	4a17      	ldr	r2, [pc, #92]	; (8000cdc <pwm_button_init+0x8c>)
 8000c7e:	f043 0301 	orr.w	r3, r3, #1
 8000c82:	6093      	str	r3, [r2, #8]
	EXTI->FTSR &= ~1;											// Falling Edge Detection cleared
 8000c84:	4b15      	ldr	r3, [pc, #84]	; (8000cdc <pwm_button_init+0x8c>)
 8000c86:	68db      	ldr	r3, [r3, #12]
 8000c88:	4a14      	ldr	r2, [pc, #80]	; (8000cdc <pwm_button_init+0x8c>)
 8000c8a:	f023 0301 	bic.w	r3, r3, #1
 8000c8e:	60d3      	str	r3, [r2, #12]

	NVIC_SetPriority(EXTI0_IRQn, 0);							// Set Priority to EXTI Interrupt
 8000c90:	2100      	movs	r1, #0
 8000c92:	2006      	movs	r0, #6
 8000c94:	f7ff ffa4 	bl	8000be0 <__NVIC_SetPriority>
	NVIC_EnableIRQ(EXTI0_IRQn);									// Enable EXTI Interrupt
 8000c98:	2006      	movs	r0, #6
 8000c9a:	f7ff ff83 	bl	8000ba4 <__NVIC_EnableIRQ>

	GPIOD->MODER |= (1<<30);									// D6 BLUE LED SET OUTPUT
 8000c9e:	4b10      	ldr	r3, [pc, #64]	; (8000ce0 <pwm_button_init+0x90>)
 8000ca0:	681b      	ldr	r3, [r3, #0]
 8000ca2:	4a0f      	ldr	r2, [pc, #60]	; (8000ce0 <pwm_button_init+0x90>)
 8000ca4:	f043 4380 	orr.w	r3, r3, #1073741824	; 0x40000000
 8000ca8:	6013      	str	r3, [r2, #0]
	GPIOD->MODER |= (1<<28);									// D6 BLUE LED SET OUTPUT
 8000caa:	4b0d      	ldr	r3, [pc, #52]	; (8000ce0 <pwm_button_init+0x90>)
 8000cac:	681b      	ldr	r3, [r3, #0]
 8000cae:	4a0c      	ldr	r2, [pc, #48]	; (8000ce0 <pwm_button_init+0x90>)
 8000cb0:	f043 5380 	orr.w	r3, r3, #268435456	; 0x10000000
 8000cb4:	6013      	str	r3, [r2, #0]
	GPIOD->MODER |= (1<<26);									// D6 BLUE LED SET OUTPUT
 8000cb6:	4b0a      	ldr	r3, [pc, #40]	; (8000ce0 <pwm_button_init+0x90>)
 8000cb8:	681b      	ldr	r3, [r3, #0]
 8000cba:	4a09      	ldr	r2, [pc, #36]	; (8000ce0 <pwm_button_init+0x90>)
 8000cbc:	f043 6380 	orr.w	r3, r3, #67108864	; 0x4000000
 8000cc0:	6013      	str	r3, [r2, #0]
	GPIOD->MODER |= (1<<24);									// D6 BLUE LED SET OUTPUT
 8000cc2:	4b07      	ldr	r3, [pc, #28]	; (8000ce0 <pwm_button_init+0x90>)
 8000cc4:	681b      	ldr	r3, [r3, #0]
 8000cc6:	4a06      	ldr	r2, [pc, #24]	; (8000ce0 <pwm_button_init+0x90>)
 8000cc8:	f043 7380 	orr.w	r3, r3, #16777216	; 0x1000000
 8000ccc:	6013      	str	r3, [r2, #0]
}
 8000cce:	bf00      	nop
 8000cd0:	bd80      	pop	{r7, pc}
 8000cd2:	bf00      	nop
 8000cd4:	40023800 	.word	0x40023800
 8000cd8:	40013800 	.word	0x40013800
 8000cdc:	40013c00 	.word	0x40013c00
 8000ce0:	40020c00 	.word	0x40020c00

08000ce4 <gpio_init>:

/******************************************/
/***			GPIO INIT				***/
/******************************************/
void gpio_init(void)
{
 8000ce4:	b480      	push	{r7}
 8000ce6:	af00      	add	r7, sp, #0
	RCC->AHB1ENR |= (1<<4 | 1<<1);								// Enable GPIOB and GPIOE Clock
 8000ce8:	4b17      	ldr	r3, [pc, #92]	; (8000d48 <gpio_init+0x64>)
 8000cea:	6b1b      	ldr	r3, [r3, #48]	; 0x30
 8000cec:	4a16      	ldr	r2, [pc, #88]	; (8000d48 <gpio_init+0x64>)
 8000cee:	f043 0312 	orr.w	r3, r3, #18
 8000cf2:	6313      	str	r3, [r2, #48]	; 0x30

	GPIOE->PUPDR  = 0;											// Pin configuration
 8000cf4:	4b15      	ldr	r3, [pc, #84]	; (8000d4c <gpio_init+0x68>)
 8000cf6:	2200      	movs	r2, #0
 8000cf8:	60da      	str	r2, [r3, #12]
	GPIOB->PUPDR  = 0;											// Pin configuration
 8000cfa:	4b15      	ldr	r3, [pc, #84]	; (8000d50 <gpio_init+0x6c>)
 8000cfc:	2200      	movs	r2, #0
 8000cfe:	60da      	str	r2, [r3, #12]
	GPIOE->OTYPER = 0;											// Pin configuration
 8000d00:	4b12      	ldr	r3, [pc, #72]	; (8000d4c <gpio_init+0x68>)
 8000d02:	2200      	movs	r2, #0
 8000d04:	605a      	str	r2, [r3, #4]
	GPIOB->OTYPER = 0;											// Pin configuration
 8000d06:	4b12      	ldr	r3, [pc, #72]	; (8000d50 <gpio_init+0x6c>)
 8000d08:	2200      	movs	r2, #0
 8000d0a:	605a      	str	r2, [r3, #4]

	GPIOE->MODER  = ((1<<19)
 8000d0c:	4b0f      	ldr	r3, [pc, #60]	; (8000d4c <gpio_init+0x68>)
 8000d0e:	4a11      	ldr	r2, [pc, #68]	; (8000d54 <gpio_init+0x70>)
 8000d10:	601a      	str	r2, [r3, #0]
					|(1<<17)
					|(1<<23)
					|(1<<27));									// GPIOE Pins 8 9 11 13 configured as Alternate Function

	GPIOE->OSPEEDR= ((1<<19)
 8000d12:	4b0e      	ldr	r3, [pc, #56]	; (8000d4c <gpio_init+0x68>)
 8000d14:	4a0f      	ldr	r2, [pc, #60]	; (8000d54 <gpio_init+0x70>)
 8000d16:	609a      	str	r2, [r3, #8]
					|(1<<17)
					|(1<<23)
					|(1<<27));									// Output Speed Set to MAX(6ns rise and fall) for all pins

	GPIOE->AFR[1] = (GPIO_AFRH_AFRH1_0
 8000d18:	4b0c      	ldr	r3, [pc, #48]	; (8000d4c <gpio_init+0x68>)
 8000d1a:	4a0f      	ldr	r2, [pc, #60]	; (8000d58 <gpio_init+0x74>)
 8000d1c:	625a      	str	r2, [r3, #36]	; 0x24
					|GPIO_AFRH_AFRH0_0
					|GPIO_AFRH_AFRH3_0
					|GPIO_AFRH_AFRH5_0);						// Configuring High Side pins 0001 (TIM1 Peripheral) in alternate function multiplexer

	GPIOB->MODER |= ((1<<1)
 8000d1e:	4b0c      	ldr	r3, [pc, #48]	; (8000d50 <gpio_init+0x6c>)
 8000d20:	681b      	ldr	r3, [r3, #0]
 8000d22:	4a0b      	ldr	r2, [pc, #44]	; (8000d50 <gpio_init+0x6c>)
 8000d24:	f043 030a 	orr.w	r3, r3, #10
 8000d28:	6013      	str	r3, [r2, #0]
					|(1<<3));									// GPIOB Pins 0 1configured as Alternate Function

	GPIOB->OSPEEDR= ((1<<1)
 8000d2a:	4b09      	ldr	r3, [pc, #36]	; (8000d50 <gpio_init+0x6c>)
 8000d2c:	220a      	movs	r2, #10
 8000d2e:	609a      	str	r2, [r3, #8]
					|(1<<3));									// Output Speed Set to MAX(6ns rise and fall)

	GPIOB->AFR[0]|= (GPIO_AFRL_AFRL0_0
 8000d30:	4b07      	ldr	r3, [pc, #28]	; (8000d50 <gpio_init+0x6c>)
 8000d32:	6a1b      	ldr	r3, [r3, #32]
 8000d34:	4a06      	ldr	r2, [pc, #24]	; (8000d50 <gpio_init+0x6c>)
 8000d36:	f043 0311 	orr.w	r3, r3, #17
 8000d3a:	6213      	str	r3, [r2, #32]
					|GPIO_AFRL_AFRL1_0);						// Configuring Low Side pins for 0001 (TIM1 Peripheral) in alternate function multiplexer
}
 8000d3c:	bf00      	nop
 8000d3e:	46bd      	mov	sp, r7
 8000d40:	f85d 7b04 	ldr.w	r7, [sp], #4
 8000d44:	4770      	bx	lr
 8000d46:	bf00      	nop
 8000d48:	40023800 	.word	0x40023800
 8000d4c:	40021000 	.word	0x40021000
 8000d50:	40020400 	.word	0x40020400
 8000d54:	088a0000 	.word	0x088a0000
 8000d58:	00101011 	.word	0x00101011

08000d5c <timer1_init>:

/******************************************/
/***			TIMER1 INIT				***/
/******************************************/
void timer1_init(void)
{
 8000d5c:	b580      	push	{r7, lr}
 8000d5e:	af00      	add	r7, sp, #0
	RCC->APB2ENR |= 1;											// Enable TIM1 Clock
 8000d60:	4b3a      	ldr	r3, [pc, #232]	; (8000e4c <timer1_init+0xf0>)
 8000d62:	6c5b      	ldr	r3, [r3, #68]	; 0x44
 8000d64:	4a39      	ldr	r2, [pc, #228]	; (8000e4c <timer1_init+0xf0>)
 8000d66:	f043 0301 	orr.w	r3, r3, #1
 8000d6a:	6453      	str	r3, [r2, #68]	; 0x44

	// Output Configurations
	TIM1->CR1   |= (TIM_CR1_CMS_Msk);								// TIMER1 counts in Center Aligned Mod 1
 8000d6c:	4b38      	ldr	r3, [pc, #224]	; (8000e50 <timer1_init+0xf4>)
 8000d6e:	681b      	ldr	r3, [r3, #0]
 8000d70:	4a37      	ldr	r2, [pc, #220]	; (8000e50 <timer1_init+0xf4>)
 8000d72:	f043 0360 	orr.w	r3, r3, #96	; 0x60
 8000d76:	6013      	str	r3, [r2, #0]
	TIM1->CCMR1 |= 6<<TIM_CCMR1_OC1M_Pos;						// TIMER1 CCMR1 Register configured as PWM TYPE1 output
 8000d78:	4b35      	ldr	r3, [pc, #212]	; (8000e50 <timer1_init+0xf4>)
 8000d7a:	699b      	ldr	r3, [r3, #24]
 8000d7c:	4a34      	ldr	r2, [pc, #208]	; (8000e50 <timer1_init+0xf4>)
 8000d7e:	f043 0360 	orr.w	r3, r3, #96	; 0x60
 8000d82:	6193      	str	r3, [r2, #24]
	TIM1->CCMR1 |= 6<<TIM_CCMR1_OC2M_Pos;						// TIMER1 CCMR2 Register configured as PWM TYPE1 output
 8000d84:	4b32      	ldr	r3, [pc, #200]	; (8000e50 <timer1_init+0xf4>)
 8000d86:	699b      	ldr	r3, [r3, #24]
 8000d88:	4a31      	ldr	r2, [pc, #196]	; (8000e50 <timer1_init+0xf4>)
 8000d8a:	f443 43c0 	orr.w	r3, r3, #24576	; 0x6000
 8000d8e:	6193      	str	r3, [r2, #24]
	TIM1->CCMR2 |= 6<<TIM_CCMR2_OC3M_Pos;						// TIMER1 CCMR1 Register configured as PWM TYPE1 output
 8000d90:	4b2f      	ldr	r3, [pc, #188]	; (8000e50 <timer1_init+0xf4>)
 8000d92:	69db      	ldr	r3, [r3, #28]
 8000d94:	4a2e      	ldr	r2, [pc, #184]	; (8000e50 <timer1_init+0xf4>)
 8000d96:	f043 0360 	orr.w	r3, r3, #96	; 0x60
 8000d9a:	61d3      	str	r3, [r2, #28]

	TIM1->CCMR1 &= ~(TIM_CCMR1_CC1S);							// TIMER1 CC1S bits cleared for output configuration
 8000d9c:	4b2c      	ldr	r3, [pc, #176]	; (8000e50 <timer1_init+0xf4>)
 8000d9e:	699b      	ldr	r3, [r3, #24]
 8000da0:	4a2b      	ldr	r2, [pc, #172]	; (8000e50 <timer1_init+0xf4>)
 8000da2:	f023 0303 	bic.w	r3, r3, #3
 8000da6:	6193      	str	r3, [r2, #24]
	TIM1->CCMR1 &= ~(TIM_CCMR1_CC2S);							// TIMER1 CC2S bits cleared for output configuration
 8000da8:	4b29      	ldr	r3, [pc, #164]	; (8000e50 <timer1_init+0xf4>)
 8000daa:	699b      	ldr	r3, [r3, #24]
 8000dac:	4a28      	ldr	r2, [pc, #160]	; (8000e50 <timer1_init+0xf4>)
 8000dae:	f423 7340 	bic.w	r3, r3, #768	; 0x300
 8000db2:	6193      	str	r3, [r2, #24]
	TIM1->CCMR2 &= ~(TIM_CCMR2_CC3S);							// TIMER1 CC3S bits cleared for output configuration
 8000db4:	4b26      	ldr	r3, [pc, #152]	; (8000e50 <timer1_init+0xf4>)
 8000db6:	69db      	ldr	r3, [r3, #28]
 8000db8:	4a25      	ldr	r2, [pc, #148]	; (8000e50 <timer1_init+0xf4>)
 8000dba:	f023 0303 	bic.w	r3, r3, #3
 8000dbe:	61d3      	str	r3, [r2, #28]

	// Counter Setup
	TIM1->PSC  = 0; 											// 168MHz 5.95nS
 8000dc0:	4b23      	ldr	r3, [pc, #140]	; (8000e50 <timer1_init+0xf4>)
 8000dc2:	2200      	movs	r2, #0
 8000dc4:	629a      	str	r2, [r3, #40]	; 0x28
	TIM1->CNT  = 0;												// Reset Current Counter
 8000dc6:	4b22      	ldr	r3, [pc, #136]	; (8000e50 <timer1_init+0xf4>)
 8000dc8:	2200      	movs	r2, #0
 8000dca:	625a      	str	r2, [r3, #36]	; 0x24
	TIM1->ARR  = TS;											// Center Mode pit to peak is 50uS "8400"
 8000dcc:	4a20      	ldr	r2, [pc, #128]	; (8000e50 <timer1_init+0xf4>)
 8000dce:	4b21      	ldr	r3, [pc, #132]	; (8000e54 <timer1_init+0xf8>)
 8000dd0:	681b      	ldr	r3, [r3, #0]
 8000dd2:	62d3      	str	r3, [r2, #44]	; 0x2c
	TIM1->CCR1 = 0;												// %0 Duty Cycle
 8000dd4:	4b1e      	ldr	r3, [pc, #120]	; (8000e50 <timer1_init+0xf4>)
 8000dd6:	2200      	movs	r2, #0
 8000dd8:	635a      	str	r2, [r3, #52]	; 0x34
	TIM1->CCR2 = 0;												// %0 Duty Cycle
 8000dda:	4b1d      	ldr	r3, [pc, #116]	; (8000e50 <timer1_init+0xf4>)
 8000ddc:	2200      	movs	r2, #0
 8000dde:	639a      	str	r2, [r3, #56]	; 0x38
	TIM1->CCR3 = 0;												// %0 Duty Cycle
 8000de0:	4b1b      	ldr	r3, [pc, #108]	; (8000e50 <timer1_init+0xf4>)
 8000de2:	2200      	movs	r2, #0
 8000de4:	63da      	str	r2, [r3, #60]	; 0x3c
	//TIM1->BDTR |= (0b00001100);								// 70nS deadtime
	//TIM1->BDTR |= (0b00010001);								// 100nS deadtime
	//TIM1->BDTR |= (0b00011010);								// 155nS deadtime
	//TIM1->BDTR |= (0b00100010);								// 202nS deadtime
	//TIM1->BDTR |= (0b01000100);								// 404nS deadtime
	TIM1->BDTR |= (0b10010100);								// 1us deadtime
 8000de6:	4b1a      	ldr	r3, [pc, #104]	; (8000e50 <timer1_init+0xf4>)
 8000de8:	6c5b      	ldr	r3, [r3, #68]	; 0x44
 8000dea:	4a19      	ldr	r2, [pc, #100]	; (8000e50 <timer1_init+0xf4>)
 8000dec:	f043 0394 	orr.w	r3, r3, #148	; 0x94
 8000df0:	6453      	str	r3, [r2, #68]	; 0x44
	//TIM1->BDTR |= (0b11001010);								// 2uS deadtime

	//TIM1->RCR = 0;											// After 50usx200=10ms ;
	TIM1->CR1 &= ~TIM_CR1_UDIS;									// Update Disabled bit disabled
 8000df2:	4b17      	ldr	r3, [pc, #92]	; (8000e50 <timer1_init+0xf4>)
 8000df4:	681b      	ldr	r3, [r3, #0]
 8000df6:	4a16      	ldr	r2, [pc, #88]	; (8000e50 <timer1_init+0xf4>)
 8000df8:	f023 0302 	bic.w	r3, r3, #2
 8000dfc:	6013      	str	r3, [r2, #0]
	TIM1->DIER|= TIM_DIER_UIE;									// Update Interrupt Enabled
 8000dfe:	4b14      	ldr	r3, [pc, #80]	; (8000e50 <timer1_init+0xf4>)
 8000e00:	68db      	ldr	r3, [r3, #12]
 8000e02:	4a13      	ldr	r2, [pc, #76]	; (8000e50 <timer1_init+0xf4>)
 8000e04:	f043 0301 	orr.w	r3, r3, #1
 8000e08:	60d3      	str	r3, [r2, #12]

	// Enable Outputs
	TIM1->CCER |= (TIM_CCER_CC1E | TIM_CCER_CC1NE);				// CC CH1 and CH1n enabled for output
 8000e0a:	4b11      	ldr	r3, [pc, #68]	; (8000e50 <timer1_init+0xf4>)
 8000e0c:	6a1b      	ldr	r3, [r3, #32]
 8000e0e:	4a10      	ldr	r2, [pc, #64]	; (8000e50 <timer1_init+0xf4>)
 8000e10:	f043 0305 	orr.w	r3, r3, #5
 8000e14:	6213      	str	r3, [r2, #32]
	TIM1->CCER |= (TIM_CCER_CC2E | TIM_CCER_CC2NE);				// CC CH2 and CH2n enabled for output
 8000e16:	4b0e      	ldr	r3, [pc, #56]	; (8000e50 <timer1_init+0xf4>)
 8000e18:	6a1b      	ldr	r3, [r3, #32]
 8000e1a:	4a0d      	ldr	r2, [pc, #52]	; (8000e50 <timer1_init+0xf4>)
 8000e1c:	f043 0350 	orr.w	r3, r3, #80	; 0x50
 8000e20:	6213      	str	r3, [r2, #32]
	TIM1->CCER |= (TIM_CCER_CC3E | TIM_CCER_CC3NE);				// CC CH3 and CH3n enabled for output
 8000e22:	4b0b      	ldr	r3, [pc, #44]	; (8000e50 <timer1_init+0xf4>)
 8000e24:	6a1b      	ldr	r3, [r3, #32]
 8000e26:	4a0a      	ldr	r2, [pc, #40]	; (8000e50 <timer1_init+0xf4>)
 8000e28:	f443 63a0 	orr.w	r3, r3, #1280	; 0x500
 8000e2c:	6213      	str	r3, [r2, #32]

	NVIC_SetPriority(TIM1_UP_TIM10_IRQn,2);						// Set NVIC Priority
 8000e2e:	2102      	movs	r1, #2
 8000e30:	2019      	movs	r0, #25
 8000e32:	f7ff fed5 	bl	8000be0 <__NVIC_SetPriority>
	NVIC_EnableIRQ(TIM1_UP_TIM10_IRQn);							// Enable Timer1 Interrupt
 8000e36:	2019      	movs	r0, #25
 8000e38:	f7ff feb4 	bl	8000ba4 <__NVIC_EnableIRQ>

	TIM1->CR1  |= (TIM_CR1_CEN_Msk);							// Counter enabled
 8000e3c:	4b04      	ldr	r3, [pc, #16]	; (8000e50 <timer1_init+0xf4>)
 8000e3e:	681b      	ldr	r3, [r3, #0]
 8000e40:	4a03      	ldr	r2, [pc, #12]	; (8000e50 <timer1_init+0xf4>)
 8000e42:	f043 0301 	orr.w	r3, r3, #1
 8000e46:	6013      	str	r3, [r2, #0]
}
 8000e48:	bf00      	nop
 8000e4a:	bd80      	pop	{r7, pc}
 8000e4c:	40023800 	.word	0x40023800
 8000e50:	40010000 	.word	0x40010000
 8000e54:	20000000 	.word	0x20000000

08000e58 <delay_ms>:

/******************************************/
/***			DELAY mS				***/
/******************************************/
void delay_ms(const uint16_t ms)
{
 8000e58:	b480      	push	{r7}
 8000e5a:	b085      	sub	sp, #20
 8000e5c:	af00      	add	r7, sp, #0
 8000e5e:	4603      	mov	r3, r0
 8000e60:	80fb      	strh	r3, [r7, #6]
  uint32_t i = ms * 27778;
 8000e62:	88fb      	ldrh	r3, [r7, #6]
 8000e64:	f646 4282 	movw	r2, #27778	; 0x6c82
 8000e68:	fb02 f303 	mul.w	r3, r2, r3
 8000e6c:	60fb      	str	r3, [r7, #12]
  while (i-- > 0) {asm("nop");  }
 8000e6e:	e000      	b.n	8000e72 <delay_ms+0x1a>
 8000e70:	bf00      	nop
 8000e72:	68fb      	ldr	r3, [r7, #12]
 8000e74:	1e5a      	subs	r2, r3, #1
 8000e76:	60fa      	str	r2, [r7, #12]
 8000e78:	2b00      	cmp	r3, #0
 8000e7a:	d1f9      	bne.n	8000e70 <delay_ms+0x18>
}
 8000e7c:	bf00      	nop
 8000e7e:	bf00      	nop
 8000e80:	3714      	adds	r7, #20
 8000e82:	46bd      	mov	sp, r7
 8000e84:	f85d 7b04 	ldr.w	r7, [sp], #4
 8000e88:	4770      	bx	lr
	...

08000e8c <adc_init>:

/******************************************/
/***			ADC Init				***/
/******************************************/
void adc_init(void)
{
 8000e8c:	b480      	push	{r7}
 8000e8e:	af00      	add	r7, sp, #0
	RCC->AHB1ENR |= (1<<2); 									// Enable GPIOC Clock
 8000e90:	4b28      	ldr	r3, [pc, #160]	; (8000f34 <adc_init+0xa8>)
 8000e92:	6b1b      	ldr	r3, [r3, #48]	; 0x30
 8000e94:	4a27      	ldr	r2, [pc, #156]	; (8000f34 <adc_init+0xa8>)
 8000e96:	f043 0304 	orr.w	r3, r3, #4
 8000e9a:	6313      	str	r3, [r2, #48]	; 0x30
	GPIOC->MODER |= (3<<2); 									// Set PC1 to analog mode
 8000e9c:	4b26      	ldr	r3, [pc, #152]	; (8000f38 <adc_init+0xac>)
 8000e9e:	681b      	ldr	r3, [r3, #0]
 8000ea0:	4a25      	ldr	r2, [pc, #148]	; (8000f38 <adc_init+0xac>)
 8000ea2:	f043 030c 	orr.w	r3, r3, #12
 8000ea6:	6013      	str	r3, [r2, #0]
	RCC->APB2ENR |= (1 << 8); 									// Enable ADC1 clock
 8000ea8:	4b22      	ldr	r3, [pc, #136]	; (8000f34 <adc_init+0xa8>)
 8000eaa:	6c5b      	ldr	r3, [r3, #68]	; 0x44
 8000eac:	4a21      	ldr	r2, [pc, #132]	; (8000f34 <adc_init+0xa8>)
 8000eae:	f443 7380 	orr.w	r3, r3, #256	; 0x100
 8000eb2:	6453      	str	r3, [r2, #68]	; 0x44
	ADC->CCR = (1<<16);											// Divide ADC clock by 4 (84/4=21Mh)
 8000eb4:	4b21      	ldr	r3, [pc, #132]	; (8000f3c <adc_init+0xb0>)
 8000eb6:	f44f 3280 	mov.w	r2, #65536	; 0x10000
 8000eba:	605a      	str	r2, [r3, #4]
	ADC1->CR1 &= ~(1 << 8); 									// SCAN mode disabled (Bit8)
 8000ebc:	4b20      	ldr	r3, [pc, #128]	; (8000f40 <adc_init+0xb4>)
 8000ebe:	685b      	ldr	r3, [r3, #4]
 8000ec0:	4a1f      	ldr	r2, [pc, #124]	; (8000f40 <adc_init+0xb4>)
 8000ec2:	f423 7380 	bic.w	r3, r3, #256	; 0x100
 8000ec6:	6053      	str	r3, [r2, #4]
	ADC1->CR1 &=  ~(3 << 24); 									// 12bit resolution (Bit24,25 0b00)
 8000ec8:	4b1d      	ldr	r3, [pc, #116]	; (8000f40 <adc_init+0xb4>)
 8000eca:	685b      	ldr	r3, [r3, #4]
 8000ecc:	4a1c      	ldr	r2, [pc, #112]	; (8000f40 <adc_init+0xb4>)
 8000ece:	f023 7340 	bic.w	r3, r3, #50331648	; 0x3000000
 8000ed2:	6053      	str	r3, [r2, #4]
	ADC1->SQR1 |= (1 << 20); 									// Set number of conversions projected (L[3:0] 0b0001) -> 1 conversion
 8000ed4:	4b1a      	ldr	r3, [pc, #104]	; (8000f40 <adc_init+0xb4>)
 8000ed6:	6adb      	ldr	r3, [r3, #44]	; 0x2c
 8000ed8:	4a19      	ldr	r2, [pc, #100]	; (8000f40 <adc_init+0xb4>)
 8000eda:	f443 1380 	orr.w	r3, r3, #1048576	; 0x100000
 8000ede:	62d3      	str	r3, [r2, #44]	; 0x2c
	ADC1->SQR3 &= ~(0x3FFFFFFF); 								// Clear whole 1st 30bits in register
 8000ee0:	4b17      	ldr	r3, [pc, #92]	; (8000f40 <adc_init+0xb4>)
 8000ee2:	6b5b      	ldr	r3, [r3, #52]	; 0x34
 8000ee4:	4a16      	ldr	r2, [pc, #88]	; (8000f40 <adc_init+0xb4>)
 8000ee6:	f003 4340 	and.w	r3, r3, #3221225472	; 0xc0000000
 8000eea:	6353      	str	r3, [r2, #52]	; 0x34
	ADC1->SQR3 |= (0b01011); 									// 1st conversion in regular sequence: SQ1: PC1 as ADC1_IN11
 8000eec:	4b14      	ldr	r3, [pc, #80]	; (8000f40 <adc_init+0xb4>)
 8000eee:	6b5b      	ldr	r3, [r3, #52]	; 0x34
 8000ef0:	4a13      	ldr	r2, [pc, #76]	; (8000f40 <adc_init+0xb4>)
 8000ef2:	f043 030b 	orr.w	r3, r3, #11
 8000ef6:	6353      	str	r3, [r2, #52]	; 0x34
	ADC1->CR2 &= ~(1 << 1); 									// Single conversion
 8000ef8:	4b11      	ldr	r3, [pc, #68]	; (8000f40 <adc_init+0xb4>)
 8000efa:	689b      	ldr	r3, [r3, #8]
 8000efc:	4a10      	ldr	r2, [pc, #64]	; (8000f40 <adc_init+0xb4>)
 8000efe:	f023 0302 	bic.w	r3, r3, #2
 8000f02:	6093      	str	r3, [r2, #8]
	ADC1->CR2 &= ~(1 << 11); 									// Right alignment of data bits bit12....bit0
 8000f04:	4b0e      	ldr	r3, [pc, #56]	; (8000f40 <adc_init+0xb4>)
 8000f06:	689b      	ldr	r3, [r3, #8]
 8000f08:	4a0d      	ldr	r2, [pc, #52]	; (8000f40 <adc_init+0xb4>)
 8000f0a:	f423 6300 	bic.w	r3, r3, #2048	; 0x800
 8000f0e:	6093      	str	r3, [r2, #8]
	ADC1->SMPR2 |= (2 << 0); 									// Sampling rate 40 cycles. 21MHz bus clock for ADC. 1/84MHz = 12nS. 40*12ns=0.47us
 8000f10:	4b0b      	ldr	r3, [pc, #44]	; (8000f40 <adc_init+0xb4>)
 8000f12:	691b      	ldr	r3, [r3, #16]
 8000f14:	4a0a      	ldr	r2, [pc, #40]	; (8000f40 <adc_init+0xb4>)
 8000f16:	f043 0302 	orr.w	r3, r3, #2
 8000f1a:	6113      	str	r3, [r2, #16]
	ADC1->CR2 |= (1 << 0); 										// Switch on ADC1
 8000f1c:	4b08      	ldr	r3, [pc, #32]	; (8000f40 <adc_init+0xb4>)
 8000f1e:	689b      	ldr	r3, [r3, #8]
 8000f20:	4a07      	ldr	r2, [pc, #28]	; (8000f40 <adc_init+0xb4>)
 8000f22:	f043 0301 	orr.w	r3, r3, #1
 8000f26:	6093      	str	r3, [r2, #8]
}
 8000f28:	bf00      	nop
 8000f2a:	46bd      	mov	sp, r7
 8000f2c:	f85d 7b04 	ldr.w	r7, [sp], #4
 8000f30:	4770      	bx	lr
 8000f32:	bf00      	nop
 8000f34:	40023800 	.word	0x40023800
 8000f38:	40020800 	.word	0x40020800
 8000f3c:	40012300 	.word	0x40012300
 8000f40:	40012000 	.word	0x40012000

08000f44 <set_sysclk_to_168>:

/******************************************/
/***			CLOCK INIT				***/
/******************************************/
void set_sysclk_to_168(void)
{
 8000f44:	b480      	push	{r7}
 8000f46:	af00      	add	r7, sp, #0
	/* FPU settings, can be enabled from project makefile */
	#if (__FPU_PRESENT == 1) && (__FPU_USED == 1)
	SCB->CPACR |= ((3UL << 10*2)|(3UL << 11*2));  /* set CP10 and CP11 Full Access */
 8000f48:	4b45      	ldr	r3, [pc, #276]	; (8001060 <set_sysclk_to_168+0x11c>)
 8000f4a:	f8d3 3088 	ldr.w	r3, [r3, #136]	; 0x88
 8000f4e:	4a44      	ldr	r2, [pc, #272]	; (8001060 <set_sysclk_to_168+0x11c>)
 8000f50:	f443 0370 	orr.w	r3, r3, #15728640	; 0xf00000
 8000f54:	f8c2 3088 	str.w	r3, [r2, #136]	; 0x88
	#endif

	/* Reset the RCC clock configuration to the default reset state */
	/* Set HSION bit */
	RCC->CR |= (1U << 0);
 8000f58:	4b42      	ldr	r3, [pc, #264]	; (8001064 <set_sysclk_to_168+0x120>)
 8000f5a:	681b      	ldr	r3, [r3, #0]
 8000f5c:	4a41      	ldr	r2, [pc, #260]	; (8001064 <set_sysclk_to_168+0x120>)
 8000f5e:	f043 0301 	orr.w	r3, r3, #1
 8000f62:	6013      	str	r3, [r2, #0]

	RCC->CFGR = 0x00000000;										/* Reset CFGR register */
 8000f64:	4b3f      	ldr	r3, [pc, #252]	; (8001064 <set_sysclk_to_168+0x120>)
 8000f66:	2200      	movs	r2, #0
 8000f68:	609a      	str	r2, [r3, #8]
	RCC->CR &= ~((1U << 16) | (1U << 19) | (1U << 24));			/* Reset HSEON (16), CSSON (19) and PLLON (24) bits */
 8000f6a:	4b3e      	ldr	r3, [pc, #248]	; (8001064 <set_sysclk_to_168+0x120>)
 8000f6c:	681b      	ldr	r3, [r3, #0]
 8000f6e:	4a3d      	ldr	r2, [pc, #244]	; (8001064 <set_sysclk_to_168+0x120>)
 8000f70:	f023 7384 	bic.w	r3, r3, #17301504	; 0x1080000
 8000f74:	f423 3380 	bic.w	r3, r3, #65536	; 0x10000
 8000f78:	6013      	str	r3, [r2, #0]
	RCC->PLLCFGR = 0x24003010UL;								/* Reset PLLCFGR register to reset value */
 8000f7a:	4b3a      	ldr	r3, [pc, #232]	; (8001064 <set_sysclk_to_168+0x120>)
 8000f7c:	4a3a      	ldr	r2, [pc, #232]	; (8001068 <set_sysclk_to_168+0x124>)
 8000f7e:	605a      	str	r2, [r3, #4]
	RCC->CR &= ~(1U << 18);										/* Reset HSEBYP bit */
 8000f80:	4b38      	ldr	r3, [pc, #224]	; (8001064 <set_sysclk_to_168+0x120>)
 8000f82:	681b      	ldr	r3, [r3, #0]
 8000f84:	4a37      	ldr	r2, [pc, #220]	; (8001064 <set_sysclk_to_168+0x120>)
 8000f86:	f423 2380 	bic.w	r3, r3, #262144	; 0x40000
 8000f8a:	6013      	str	r3, [r2, #0]
	RCC->CIR = 0x00000000UL;									/* Disable all clock interrupts */
 8000f8c:	4b35      	ldr	r3, [pc, #212]	; (8001064 <set_sysclk_to_168+0x120>)
 8000f8e:	2200      	movs	r2, #0
 8000f90:	60da      	str	r2, [r3, #12]
	CoreDebug->DEMCR |= CoreDebug_DEMCR_TRCENA_Msk;
 8000f92:	4b36      	ldr	r3, [pc, #216]	; (800106c <set_sysclk_to_168+0x128>)
 8000f94:	68db      	ldr	r3, [r3, #12]
 8000f96:	4a35      	ldr	r2, [pc, #212]	; (800106c <set_sysclk_to_168+0x128>)
 8000f98:	f043 7380 	orr.w	r3, r3, #16777216	; 0x1000000
 8000f9c:	60d3      	str	r3, [r2, #12]
	DWT->CYCCNT = 0;
 8000f9e:	4b34      	ldr	r3, [pc, #208]	; (8001070 <set_sysclk_to_168+0x12c>)
 8000fa0:	2200      	movs	r2, #0
 8000fa2:	605a      	str	r2, [r3, #4]
	DWT->CTRL |= DWT_CTRL_CYCCNTENA_Msk;
 8000fa4:	4b32      	ldr	r3, [pc, #200]	; (8001070 <set_sysclk_to_168+0x12c>)
 8000fa6:	681b      	ldr	r3, [r3, #0]
 8000fa8:	4a31      	ldr	r2, [pc, #196]	; (8001070 <set_sysclk_to_168+0x12c>)
 8000faa:	f043 0301 	orr.w	r3, r3, #1
 8000fae:	6013      	str	r3, [r2, #0]
	RCC->CR |= (1U << 16);										/* Enable HSE (CR: bit 16) */
 8000fb0:	4b2c      	ldr	r3, [pc, #176]	; (8001064 <set_sysclk_to_168+0x120>)
 8000fb2:	681b      	ldr	r3, [r3, #0]
 8000fb4:	4a2b      	ldr	r2, [pc, #172]	; (8001064 <set_sysclk_to_168+0x120>)
 8000fb6:	f443 3380 	orr.w	r3, r3, #65536	; 0x10000
 8000fba:	6013      	str	r3, [r2, #0]
	while(!(RCC->CR & (1 << 17)));								/* Wait till HSE is ready (CR: bit 17) */
 8000fbc:	bf00      	nop
 8000fbe:	4b29      	ldr	r3, [pc, #164]	; (8001064 <set_sysclk_to_168+0x120>)
 8000fc0:	681b      	ldr	r3, [r3, #0]
 8000fc2:	f403 3300 	and.w	r3, r3, #131072	; 0x20000
 8000fc6:	2b00      	cmp	r3, #0
 8000fc8:	d0f9      	beq.n	8000fbe <set_sysclk_to_168+0x7a>
	RCC->APB1ENR |= (1 << 28);									/* Enable power interface clock (APB1ENR:bit 28) */
 8000fca:	4b26      	ldr	r3, [pc, #152]	; (8001064 <set_sysclk_to_168+0x120>)
 8000fcc:	6c1b      	ldr	r3, [r3, #64]	; 0x40
 8000fce:	4a25      	ldr	r2, [pc, #148]	; (8001064 <set_sysclk_to_168+0x120>)
 8000fd0:	f043 5380 	orr.w	r3, r3, #268435456	; 0x10000000
 8000fd4:	6413      	str	r3, [r2, #64]	; 0x40

	/* set voltage scale to 1 for max frequency (PWR_CR:bit 14)
	 * (0b0) scale 2 for fCLK <= 144 Mhz
	 * (0b1) scale 1 for 144 Mhz < fCLK <= 168 Mhz
	 */
	PWR->CR |= (1 << 14);
 8000fd6:	4b27      	ldr	r3, [pc, #156]	; (8001074 <set_sysclk_to_168+0x130>)
 8000fd8:	681b      	ldr	r3, [r3, #0]
 8000fda:	4a26      	ldr	r2, [pc, #152]	; (8001074 <set_sysclk_to_168+0x130>)
 8000fdc:	f443 4380 	orr.w	r3, r3, #16384	; 0x4000
 8000fe0:	6013      	str	r3, [r2, #0]
	RCC->CFGR |= (0 << 4);										/* set AHB prescaler to /1 (CFGR:bits 7:4) */
 8000fe2:	4b20      	ldr	r3, [pc, #128]	; (8001064 <set_sysclk_to_168+0x120>)
 8000fe4:	4a1f      	ldr	r2, [pc, #124]	; (8001064 <set_sysclk_to_168+0x120>)
 8000fe6:	689b      	ldr	r3, [r3, #8]
 8000fe8:	6093      	str	r3, [r2, #8]
	RCC->CFGR |= (5 << 10);										/* set APB low speed prescaler to /4 (APB1) (CFGR:bits 12:10) */
 8000fea:	4b1e      	ldr	r3, [pc, #120]	; (8001064 <set_sysclk_to_168+0x120>)
 8000fec:	689b      	ldr	r3, [r3, #8]
 8000fee:	4a1d      	ldr	r2, [pc, #116]	; (8001064 <set_sysclk_to_168+0x120>)
 8000ff0:	f443 53a0 	orr.w	r3, r3, #5120	; 0x1400
 8000ff4:	6093      	str	r3, [r2, #8]
	RCC->CFGR |= (4 << 13);										/* set APB high speed prescaler to /2 (APB2) (CFGR:bits 15:13) */
 8000ff6:	4b1b      	ldr	r3, [pc, #108]	; (8001064 <set_sysclk_to_168+0x120>)
 8000ff8:	689b      	ldr	r3, [r3, #8]
 8000ffa:	4a1a      	ldr	r2, [pc, #104]	; (8001064 <set_sysclk_to_168+0x120>)
 8000ffc:	f443 4300 	orr.w	r3, r3, #32768	; 0x8000
 8001000:	6093      	str	r3, [r2, #8]

	/* Set M, N, P and Q PLL dividers
	 * PLLCFGR: bits 5:0 (M), 14:6 (N), 17:16 (P), 27:24 (Q)
	 * Set PLL source to HSE, PLLCFGR: bit 22, 1:HSE, 0:HSI
	 */
	RCC->PLLCFGR = 8 | (336 << 6) | (((2 >> 1) -1) << 16) |
 8001002:	4b18      	ldr	r3, [pc, #96]	; (8001064 <set_sysclk_to_168+0x120>)
 8001004:	4a1c      	ldr	r2, [pc, #112]	; (8001078 <set_sysclk_to_168+0x134>)
 8001006:	605a      	str	r2, [r3, #4]
	               (7 << 24) | (1 << 22);
	RCC->CR |= (1 << 24);										/* Enable the main PLL (CR: bit 24) */
 8001008:	4b16      	ldr	r3, [pc, #88]	; (8001064 <set_sysclk_to_168+0x120>)
 800100a:	681b      	ldr	r3, [r3, #0]
 800100c:	4a15      	ldr	r2, [pc, #84]	; (8001064 <set_sysclk_to_168+0x120>)
 800100e:	f043 7380 	orr.w	r3, r3, #16777216	; 0x1000000
 8001012:	6013      	str	r3, [r2, #0]
	while(!(RCC->CR & (1 << 25)));								/* Wait till the main PLL is ready (CR: bit 25) */
 8001014:	bf00      	nop
 8001016:	4b13      	ldr	r3, [pc, #76]	; (8001064 <set_sysclk_to_168+0x120>)
 8001018:	681b      	ldr	r3, [r3, #0]
 800101a:	f003 7300 	and.w	r3, r3, #33554432	; 0x2000000
 800101e:	2b00      	cmp	r3, #0
 8001020:	d0f9      	beq.n	8001016 <set_sysclk_to_168+0xd2>
	 * instruction cache enable (ACR:bit 9)
	 * data cache enable (ACR:bit 10)
	 * set latency to 5 wait states (ARC:bits 2:0)
	 *   see Table 10 on page 80 in RM0090
	 */
	FLASH->ACR = (1 << 8) | (1 << 9) | (1 << 10 ) | (5 << 0);
 8001022:	4b16      	ldr	r3, [pc, #88]	; (800107c <set_sysclk_to_168+0x138>)
 8001024:	f240 7205 	movw	r2, #1797	; 0x705
 8001028:	601a      	str	r2, [r3, #0]
	/* Select the main PLL as system clock source, (CFGR:bits 1:0)
	 * 0b00 - HSI
	 * 0b01 - HSE
	 * 0b10 - PLL
	 */
	RCC->CFGR &= ~(3U << 0);
 800102a:	4b0e      	ldr	r3, [pc, #56]	; (8001064 <set_sysclk_to_168+0x120>)
 800102c:	689b      	ldr	r3, [r3, #8]
 800102e:	4a0d      	ldr	r2, [pc, #52]	; (8001064 <set_sysclk_to_168+0x120>)
 8001030:	f023 0303 	bic.w	r3, r3, #3
 8001034:	6093      	str	r3, [r2, #8]
	RCC->CFGR |= (2 << 0);
 8001036:	4b0b      	ldr	r3, [pc, #44]	; (8001064 <set_sysclk_to_168+0x120>)
 8001038:	689b      	ldr	r3, [r3, #8]
 800103a:	4a0a      	ldr	r2, [pc, #40]	; (8001064 <set_sysclk_to_168+0x120>)
 800103c:	f043 0302 	orr.w	r3, r3, #2
 8001040:	6093      	str	r3, [r2, #8]
	while (!(RCC->CFGR & (2U << 2)));							/* Wait till the main PLL is used as system clock source (CFGR:bits 3:2) */
 8001042:	bf00      	nop
 8001044:	4b07      	ldr	r3, [pc, #28]	; (8001064 <set_sysclk_to_168+0x120>)
 8001046:	689b      	ldr	r3, [r3, #8]
 8001048:	f003 0308 	and.w	r3, r3, #8
 800104c:	2b00      	cmp	r3, #0
 800104e:	d0f9      	beq.n	8001044 <set_sysclk_to_168+0x100>
	SystemCoreClock = 168000000;								// update SystemCoreClock variable
 8001050:	4b0b      	ldr	r3, [pc, #44]	; (8001080 <set_sysclk_to_168+0x13c>)
 8001052:	4a0c      	ldr	r2, [pc, #48]	; (8001084 <set_sysclk_to_168+0x140>)
 8001054:	601a      	str	r2, [r3, #0]
}
 8001056:	bf00      	nop
 8001058:	46bd      	mov	sp, r7
 800105a:	f85d 7b04 	ldr.w	r7, [sp], #4
 800105e:	4770      	bx	lr
 8001060:	e000ed00 	.word	0xe000ed00
 8001064:	40023800 	.word	0x40023800
 8001068:	24003010 	.word	0x24003010
 800106c:	e000edf0 	.word	0xe000edf0
 8001070:	e0001000 	.word	0xe0001000
 8001074:	40007000 	.word	0x40007000
 8001078:	07405408 	.word	0x07405408
 800107c:	40023c00 	.word	0x40023c00
 8001080:	2000000c 	.word	0x2000000c
 8001084:	0a037a00 	.word	0x0a037a00

08001088 <TIM1_UP_TIM10_IRQHandler>:

/******************************************/
/***			TIMER1 INTERRUPT		***/
/******************************************/
void TIM1_UP_TIM10_IRQHandler(void)
{
 8001088:	e92d 43b0 	stmdb	sp!, {r4, r5, r7, r8, r9, lr}
 800108c:	af00      	add	r7, sp, #0
	ADC1->CR2 |= (1<<30);  										// start the conversion
 800108e:	4bb4      	ldr	r3, [pc, #720]	; (8001360 <TIM1_UP_TIM10_IRQHandler+0x2d8>)
 8001090:	689b      	ldr	r3, [r3, #8]
 8001092:	4ab3      	ldr	r2, [pc, #716]	; (8001360 <TIM1_UP_TIM10_IRQHandler+0x2d8>)
 8001094:	f043 4380 	orr.w	r3, r3, #1073741824	; 0x40000000
 8001098:	6093      	str	r3, [r2, #8]
	sector=(theta)/60+1;
 800109a:	4bb2      	ldr	r3, [pc, #712]	; (8001364 <TIM1_UP_TIM10_IRQHandler+0x2dc>)
 800109c:	ed93 7a00 	vldr	s14, [r3]
 80010a0:	eddf 6ab1 	vldr	s13, [pc, #708]	; 8001368 <TIM1_UP_TIM10_IRQHandler+0x2e0>
 80010a4:	eec7 7a26 	vdiv.f32	s15, s14, s13
 80010a8:	eeb7 7a00 	vmov.f32	s14, #112	; 0x3f800000  1.0
 80010ac:	ee77 7a87 	vadd.f32	s15, s15, s14
 80010b0:	eefd 7ae7 	vcvt.s32.f32	s15, s15
 80010b4:	ee17 2a90 	vmov	r2, s15
 80010b8:	4bac      	ldr	r3, [pc, #688]	; (800136c <TIM1_UP_TIM10_IRQHandler+0x2e4>)
 80010ba:	601a      	str	r2, [r3, #0]
	TIM1->SR &=~(TIM_SR_UIF);									// Lower Interrupt flag
 80010bc:	4bac      	ldr	r3, [pc, #688]	; (8001370 <TIM1_UP_TIM10_IRQHandler+0x2e8>)
 80010be:	691b      	ldr	r3, [r3, #16]
 80010c0:	4aab      	ldr	r2, [pc, #684]	; (8001370 <TIM1_UP_TIM10_IRQHandler+0x2e8>)
 80010c2:	f023 0301 	bic.w	r3, r3, #1
 80010c6:	6113      	str	r3, [r2, #16]
	T1=TS*M*sin((PI/3)*(sector) - (theta*PI/180));
 80010c8:	4baa      	ldr	r3, [pc, #680]	; (8001374 <TIM1_UP_TIM10_IRQHandler+0x2ec>)
 80010ca:	681b      	ldr	r3, [r3, #0]
 80010cc:	ee07 3a90 	vmov	s15, r3
 80010d0:	eeb8 7a67 	vcvt.f32.u32	s14, s15
 80010d4:	4ba8      	ldr	r3, [pc, #672]	; (8001378 <TIM1_UP_TIM10_IRQHandler+0x2f0>)
 80010d6:	edd3 7a00 	vldr	s15, [r3]
 80010da:	ee67 7a27 	vmul.f32	s15, s14, s15
 80010de:	ee17 0a90 	vmov	r0, s15
 80010e2:	f7ff f9d5 	bl	8000490 <__aeabi_f2d>
 80010e6:	4604      	mov	r4, r0
 80010e8:	460d      	mov	r5, r1
 80010ea:	4ba0      	ldr	r3, [pc, #640]	; (800136c <TIM1_UP_TIM10_IRQHandler+0x2e4>)
 80010ec:	681b      	ldr	r3, [r3, #0]
 80010ee:	4618      	mov	r0, r3
 80010f0:	f7ff f9bc 	bl	800046c <__aeabi_i2d>
 80010f4:	a394      	add	r3, pc, #592	; (adr r3, 8001348 <TIM1_UP_TIM10_IRQHandler+0x2c0>)
 80010f6:	e9d3 2300 	ldrd	r2, r3, [r3]
 80010fa:	f7ff fa21 	bl	8000540 <__aeabi_dmul>
 80010fe:	4602      	mov	r2, r0
 8001100:	460b      	mov	r3, r1
 8001102:	4690      	mov	r8, r2
 8001104:	4699      	mov	r9, r3
 8001106:	4b97      	ldr	r3, [pc, #604]	; (8001364 <TIM1_UP_TIM10_IRQHandler+0x2dc>)
 8001108:	681b      	ldr	r3, [r3, #0]
 800110a:	4618      	mov	r0, r3
 800110c:	f7ff f9c0 	bl	8000490 <__aeabi_f2d>
 8001110:	a38f      	add	r3, pc, #572	; (adr r3, 8001350 <TIM1_UP_TIM10_IRQHandler+0x2c8>)
 8001112:	e9d3 2300 	ldrd	r2, r3, [r3]
 8001116:	f7ff fa13 	bl	8000540 <__aeabi_dmul>
 800111a:	4602      	mov	r2, r0
 800111c:	460b      	mov	r3, r1
 800111e:	4610      	mov	r0, r2
 8001120:	4619      	mov	r1, r3
 8001122:	f04f 0200 	mov.w	r2, #0
 8001126:	4b95      	ldr	r3, [pc, #596]	; (800137c <TIM1_UP_TIM10_IRQHandler+0x2f4>)
 8001128:	f7ff fb34 	bl	8000794 <__aeabi_ddiv>
 800112c:	4602      	mov	r2, r0
 800112e:	460b      	mov	r3, r1
 8001130:	4640      	mov	r0, r8
 8001132:	4649      	mov	r1, r9
 8001134:	f7ff f84c 	bl	80001d0 <__aeabi_dsub>
 8001138:	4602      	mov	r2, r0
 800113a:	460b      	mov	r3, r1
 800113c:	ec43 2b17 	vmov	d7, r2, r3
 8001140:	eeb0 0a47 	vmov.f32	s0, s14
 8001144:	eef0 0a67 	vmov.f32	s1, s15
 8001148:	f000 fa86 	bl	8001658 <sin>
 800114c:	ec53 2b10 	vmov	r2, r3, d0
 8001150:	4620      	mov	r0, r4
 8001152:	4629      	mov	r1, r5
 8001154:	f7ff f9f4 	bl	8000540 <__aeabi_dmul>
 8001158:	4602      	mov	r2, r0
 800115a:	460b      	mov	r3, r1
 800115c:	4610      	mov	r0, r2
 800115e:	4619      	mov	r1, r3
 8001160:	f7ff fcb0 	bl	8000ac4 <__aeabi_d2uiz>
 8001164:	4603      	mov	r3, r0
 8001166:	4a86      	ldr	r2, [pc, #536]	; (8001380 <TIM1_UP_TIM10_IRQHandler+0x2f8>)
 8001168:	6013      	str	r3, [r2, #0]
	T2=TS*M*sin((-PI/3)*(sector-1) +(theta*PI/180));
 800116a:	4b82      	ldr	r3, [pc, #520]	; (8001374 <TIM1_UP_TIM10_IRQHandler+0x2ec>)
 800116c:	681b      	ldr	r3, [r3, #0]
 800116e:	ee07 3a90 	vmov	s15, r3
 8001172:	eeb8 7a67 	vcvt.f32.u32	s14, s15
 8001176:	4b80      	ldr	r3, [pc, #512]	; (8001378 <TIM1_UP_TIM10_IRQHandler+0x2f0>)
 8001178:	edd3 7a00 	vldr	s15, [r3]
 800117c:	ee67 7a27 	vmul.f32	s15, s14, s15
 8001180:	ee17 0a90 	vmov	r0, s15
 8001184:	f7ff f984 	bl	8000490 <__aeabi_f2d>
 8001188:	4604      	mov	r4, r0
 800118a:	460d      	mov	r5, r1
 800118c:	4b77      	ldr	r3, [pc, #476]	; (800136c <TIM1_UP_TIM10_IRQHandler+0x2e4>)
 800118e:	681b      	ldr	r3, [r3, #0]
 8001190:	3b01      	subs	r3, #1
 8001192:	4618      	mov	r0, r3
 8001194:	f7ff f96a 	bl	800046c <__aeabi_i2d>
 8001198:	a36f      	add	r3, pc, #444	; (adr r3, 8001358 <TIM1_UP_TIM10_IRQHandler+0x2d0>)
 800119a:	e9d3 2300 	ldrd	r2, r3, [r3]
 800119e:	f7ff f9cf 	bl	8000540 <__aeabi_dmul>
 80011a2:	4602      	mov	r2, r0
 80011a4:	460b      	mov	r3, r1
 80011a6:	4690      	mov	r8, r2
 80011a8:	4699      	mov	r9, r3
 80011aa:	4b6e      	ldr	r3, [pc, #440]	; (8001364 <TIM1_UP_TIM10_IRQHandler+0x2dc>)
 80011ac:	681b      	ldr	r3, [r3, #0]
 80011ae:	4618      	mov	r0, r3
 80011b0:	f7ff f96e 	bl	8000490 <__aeabi_f2d>
 80011b4:	a366      	add	r3, pc, #408	; (adr r3, 8001350 <TIM1_UP_TIM10_IRQHandler+0x2c8>)
 80011b6:	e9d3 2300 	ldrd	r2, r3, [r3]
 80011ba:	f7ff f9c1 	bl	8000540 <__aeabi_dmul>
 80011be:	4602      	mov	r2, r0
 80011c0:	460b      	mov	r3, r1
 80011c2:	4610      	mov	r0, r2
 80011c4:	4619      	mov	r1, r3
 80011c6:	f04f 0200 	mov.w	r2, #0
 80011ca:	4b6c      	ldr	r3, [pc, #432]	; (800137c <TIM1_UP_TIM10_IRQHandler+0x2f4>)
 80011cc:	f7ff fae2 	bl	8000794 <__aeabi_ddiv>
 80011d0:	4602      	mov	r2, r0
 80011d2:	460b      	mov	r3, r1
 80011d4:	4640      	mov	r0, r8
 80011d6:	4649      	mov	r1, r9
 80011d8:	f7fe fffc 	bl	80001d4 <__adddf3>
 80011dc:	4602      	mov	r2, r0
 80011de:	460b      	mov	r3, r1
 80011e0:	ec43 2b17 	vmov	d7, r2, r3
 80011e4:	eeb0 0a47 	vmov.f32	s0, s14
 80011e8:	eef0 0a67 	vmov.f32	s1, s15
 80011ec:	f000 fa34 	bl	8001658 <sin>
 80011f0:	ec53 2b10 	vmov	r2, r3, d0
 80011f4:	4620      	mov	r0, r4
 80011f6:	4629      	mov	r1, r5
 80011f8:	f7ff f9a2 	bl	8000540 <__aeabi_dmul>
 80011fc:	4602      	mov	r2, r0
 80011fe:	460b      	mov	r3, r1
 8001200:	4610      	mov	r0, r2
 8001202:	4619      	mov	r1, r3
 8001204:	f7ff fc5e 	bl	8000ac4 <__aeabi_d2uiz>
 8001208:	4603      	mov	r3, r0
 800120a:	4a5e      	ldr	r2, [pc, #376]	; (8001384 <TIM1_UP_TIM10_IRQHandler+0x2fc>)
 800120c:	6013      	str	r3, [r2, #0]
	Tz=TS-T1-T2;
 800120e:	4b59      	ldr	r3, [pc, #356]	; (8001374 <TIM1_UP_TIM10_IRQHandler+0x2ec>)
 8001210:	681a      	ldr	r2, [r3, #0]
 8001212:	4b5b      	ldr	r3, [pc, #364]	; (8001380 <TIM1_UP_TIM10_IRQHandler+0x2f8>)
 8001214:	681b      	ldr	r3, [r3, #0]
 8001216:	1ad2      	subs	r2, r2, r3
 8001218:	4b5a      	ldr	r3, [pc, #360]	; (8001384 <TIM1_UP_TIM10_IRQHandler+0x2fc>)
 800121a:	681b      	ldr	r3, [r3, #0]
 800121c:	1ad3      	subs	r3, r2, r3
 800121e:	4a5a      	ldr	r2, [pc, #360]	; (8001388 <TIM1_UP_TIM10_IRQHandler+0x300>)
 8001220:	6013      	str	r3, [r2, #0]
	switch (sector)
 8001222:	4b52      	ldr	r3, [pc, #328]	; (800136c <TIM1_UP_TIM10_IRQHandler+0x2e4>)
 8001224:	681b      	ldr	r3, [r3, #0]
 8001226:	3b01      	subs	r3, #1
 8001228:	2b05      	cmp	r3, #5
 800122a:	f200 80c8 	bhi.w	80013be <TIM1_UP_TIM10_IRQHandler+0x336>
 800122e:	a201      	add	r2, pc, #4	; (adr r2, 8001234 <TIM1_UP_TIM10_IRQHandler+0x1ac>)
 8001230:	f852 f023 	ldr.w	pc, [r2, r3, lsl #2]
 8001234:	0800124d 	.word	0x0800124d
 8001238:	0800127f 	.word	0x0800127f
 800123c:	080012b1 	.word	0x080012b1
 8001240:	080012e3 	.word	0x080012e3
 8001244:	08001315 	.word	0x08001315
 8001248:	0800138d 	.word	0x0800138d
	{
	case 1:
	TIM1->CCR1=(Tz/2 + T1 +T2);
 800124c:	4b4e      	ldr	r3, [pc, #312]	; (8001388 <TIM1_UP_TIM10_IRQHandler+0x300>)
 800124e:	681b      	ldr	r3, [r3, #0]
 8001250:	085a      	lsrs	r2, r3, #1
 8001252:	4b4b      	ldr	r3, [pc, #300]	; (8001380 <TIM1_UP_TIM10_IRQHandler+0x2f8>)
 8001254:	681b      	ldr	r3, [r3, #0]
 8001256:	441a      	add	r2, r3
 8001258:	4b4a      	ldr	r3, [pc, #296]	; (8001384 <TIM1_UP_TIM10_IRQHandler+0x2fc>)
 800125a:	681b      	ldr	r3, [r3, #0]
 800125c:	4944      	ldr	r1, [pc, #272]	; (8001370 <TIM1_UP_TIM10_IRQHandler+0x2e8>)
 800125e:	4413      	add	r3, r2
 8001260:	634b      	str	r3, [r1, #52]	; 0x34
	TIM1->CCR2=(Tz/2 + T2);
 8001262:	4b49      	ldr	r3, [pc, #292]	; (8001388 <TIM1_UP_TIM10_IRQHandler+0x300>)
 8001264:	681b      	ldr	r3, [r3, #0]
 8001266:	085a      	lsrs	r2, r3, #1
 8001268:	4b46      	ldr	r3, [pc, #280]	; (8001384 <TIM1_UP_TIM10_IRQHandler+0x2fc>)
 800126a:	681b      	ldr	r3, [r3, #0]
 800126c:	4940      	ldr	r1, [pc, #256]	; (8001370 <TIM1_UP_TIM10_IRQHandler+0x2e8>)
 800126e:	4413      	add	r3, r2
 8001270:	638b      	str	r3, [r1, #56]	; 0x38
	TIM1->CCR3=(Tz/2);
 8001272:	4b45      	ldr	r3, [pc, #276]	; (8001388 <TIM1_UP_TIM10_IRQHandler+0x300>)
 8001274:	681b      	ldr	r3, [r3, #0]
 8001276:	4a3e      	ldr	r2, [pc, #248]	; (8001370 <TIM1_UP_TIM10_IRQHandler+0x2e8>)
 8001278:	085b      	lsrs	r3, r3, #1
 800127a:	63d3      	str	r3, [r2, #60]	; 0x3c
	break;
 800127c:	e0a0      	b.n	80013c0 <TIM1_UP_TIM10_IRQHandler+0x338>

	case 2:
	TIM1->CCR1=(Tz/2 +T1);
 800127e:	4b42      	ldr	r3, [pc, #264]	; (8001388 <TIM1_UP_TIM10_IRQHandler+0x300>)
 8001280:	681b      	ldr	r3, [r3, #0]
 8001282:	085a      	lsrs	r2, r3, #1
 8001284:	4b3e      	ldr	r3, [pc, #248]	; (8001380 <TIM1_UP_TIM10_IRQHandler+0x2f8>)
 8001286:	681b      	ldr	r3, [r3, #0]
 8001288:	4939      	ldr	r1, [pc, #228]	; (8001370 <TIM1_UP_TIM10_IRQHandler+0x2e8>)
 800128a:	4413      	add	r3, r2
 800128c:	634b      	str	r3, [r1, #52]	; 0x34
	TIM1->CCR2=(Tz/2 + T1 +T2);
 800128e:	4b3e      	ldr	r3, [pc, #248]	; (8001388 <TIM1_UP_TIM10_IRQHandler+0x300>)
 8001290:	681b      	ldr	r3, [r3, #0]
 8001292:	085a      	lsrs	r2, r3, #1
 8001294:	4b3a      	ldr	r3, [pc, #232]	; (8001380 <TIM1_UP_TIM10_IRQHandler+0x2f8>)
 8001296:	681b      	ldr	r3, [r3, #0]
 8001298:	441a      	add	r2, r3
 800129a:	4b3a      	ldr	r3, [pc, #232]	; (8001384 <TIM1_UP_TIM10_IRQHandler+0x2fc>)
 800129c:	681b      	ldr	r3, [r3, #0]
 800129e:	4934      	ldr	r1, [pc, #208]	; (8001370 <TIM1_UP_TIM10_IRQHandler+0x2e8>)
 80012a0:	4413      	add	r3, r2
 80012a2:	638b      	str	r3, [r1, #56]	; 0x38
	TIM1->CCR3=(Tz/2);
 80012a4:	4b38      	ldr	r3, [pc, #224]	; (8001388 <TIM1_UP_TIM10_IRQHandler+0x300>)
 80012a6:	681b      	ldr	r3, [r3, #0]
 80012a8:	4a31      	ldr	r2, [pc, #196]	; (8001370 <TIM1_UP_TIM10_IRQHandler+0x2e8>)
 80012aa:	085b      	lsrs	r3, r3, #1
 80012ac:	63d3      	str	r3, [r2, #60]	; 0x3c
	break;
 80012ae:	e087      	b.n	80013c0 <TIM1_UP_TIM10_IRQHandler+0x338>

	case 3:
	TIM1->CCR1=(Tz/2);
 80012b0:	4b35      	ldr	r3, [pc, #212]	; (8001388 <TIM1_UP_TIM10_IRQHandler+0x300>)
 80012b2:	681b      	ldr	r3, [r3, #0]
 80012b4:	4a2e      	ldr	r2, [pc, #184]	; (8001370 <TIM1_UP_TIM10_IRQHandler+0x2e8>)
 80012b6:	085b      	lsrs	r3, r3, #1
 80012b8:	6353      	str	r3, [r2, #52]	; 0x34
	TIM1->CCR2=(Tz/2 + T1 +T2);
 80012ba:	4b33      	ldr	r3, [pc, #204]	; (8001388 <TIM1_UP_TIM10_IRQHandler+0x300>)
 80012bc:	681b      	ldr	r3, [r3, #0]
 80012be:	085a      	lsrs	r2, r3, #1
 80012c0:	4b2f      	ldr	r3, [pc, #188]	; (8001380 <TIM1_UP_TIM10_IRQHandler+0x2f8>)
 80012c2:	681b      	ldr	r3, [r3, #0]
 80012c4:	441a      	add	r2, r3
 80012c6:	4b2f      	ldr	r3, [pc, #188]	; (8001384 <TIM1_UP_TIM10_IRQHandler+0x2fc>)
 80012c8:	681b      	ldr	r3, [r3, #0]
 80012ca:	4929      	ldr	r1, [pc, #164]	; (8001370 <TIM1_UP_TIM10_IRQHandler+0x2e8>)
 80012cc:	4413      	add	r3, r2
 80012ce:	638b      	str	r3, [r1, #56]	; 0x38
	TIM1->CCR3=(Tz/2 + T2);
 80012d0:	4b2d      	ldr	r3, [pc, #180]	; (8001388 <TIM1_UP_TIM10_IRQHandler+0x300>)
 80012d2:	681b      	ldr	r3, [r3, #0]
 80012d4:	085a      	lsrs	r2, r3, #1
 80012d6:	4b2b      	ldr	r3, [pc, #172]	; (8001384 <TIM1_UP_TIM10_IRQHandler+0x2fc>)
 80012d8:	681b      	ldr	r3, [r3, #0]
 80012da:	4925      	ldr	r1, [pc, #148]	; (8001370 <TIM1_UP_TIM10_IRQHandler+0x2e8>)
 80012dc:	4413      	add	r3, r2
 80012de:	63cb      	str	r3, [r1, #60]	; 0x3c
	break;
 80012e0:	e06e      	b.n	80013c0 <TIM1_UP_TIM10_IRQHandler+0x338>

	case 4:
	TIM1->CCR1=(Tz/2);
 80012e2:	4b29      	ldr	r3, [pc, #164]	; (8001388 <TIM1_UP_TIM10_IRQHandler+0x300>)
 80012e4:	681b      	ldr	r3, [r3, #0]
 80012e6:	4a22      	ldr	r2, [pc, #136]	; (8001370 <TIM1_UP_TIM10_IRQHandler+0x2e8>)
 80012e8:	085b      	lsrs	r3, r3, #1
 80012ea:	6353      	str	r3, [r2, #52]	; 0x34
	TIM1->CCR2=(Tz/2 +T1);
 80012ec:	4b26      	ldr	r3, [pc, #152]	; (8001388 <TIM1_UP_TIM10_IRQHandler+0x300>)
 80012ee:	681b      	ldr	r3, [r3, #0]
 80012f0:	085a      	lsrs	r2, r3, #1
 80012f2:	4b23      	ldr	r3, [pc, #140]	; (8001380 <TIM1_UP_TIM10_IRQHandler+0x2f8>)
 80012f4:	681b      	ldr	r3, [r3, #0]
 80012f6:	491e      	ldr	r1, [pc, #120]	; (8001370 <TIM1_UP_TIM10_IRQHandler+0x2e8>)
 80012f8:	4413      	add	r3, r2
 80012fa:	638b      	str	r3, [r1, #56]	; 0x38
	TIM1->CCR3=(Tz/2 + T1 +T2);
 80012fc:	4b22      	ldr	r3, [pc, #136]	; (8001388 <TIM1_UP_TIM10_IRQHandler+0x300>)
 80012fe:	681b      	ldr	r3, [r3, #0]
 8001300:	085a      	lsrs	r2, r3, #1
 8001302:	4b1f      	ldr	r3, [pc, #124]	; (8001380 <TIM1_UP_TIM10_IRQHandler+0x2f8>)
 8001304:	681b      	ldr	r3, [r3, #0]
 8001306:	441a      	add	r2, r3
 8001308:	4b1e      	ldr	r3, [pc, #120]	; (8001384 <TIM1_UP_TIM10_IRQHandler+0x2fc>)
 800130a:	681b      	ldr	r3, [r3, #0]
 800130c:	4918      	ldr	r1, [pc, #96]	; (8001370 <TIM1_UP_TIM10_IRQHandler+0x2e8>)
 800130e:	4413      	add	r3, r2
 8001310:	63cb      	str	r3, [r1, #60]	; 0x3c
	break;
 8001312:	e055      	b.n	80013c0 <TIM1_UP_TIM10_IRQHandler+0x338>

	case 5:
	TIM1->CCR1=(Tz/2 + T2);
 8001314:	4b1c      	ldr	r3, [pc, #112]	; (8001388 <TIM1_UP_TIM10_IRQHandler+0x300>)
 8001316:	681b      	ldr	r3, [r3, #0]
 8001318:	085a      	lsrs	r2, r3, #1
 800131a:	4b1a      	ldr	r3, [pc, #104]	; (8001384 <TIM1_UP_TIM10_IRQHandler+0x2fc>)
 800131c:	681b      	ldr	r3, [r3, #0]
 800131e:	4914      	ldr	r1, [pc, #80]	; (8001370 <TIM1_UP_TIM10_IRQHandler+0x2e8>)
 8001320:	4413      	add	r3, r2
 8001322:	634b      	str	r3, [r1, #52]	; 0x34
	TIM1->CCR2=(Tz/2);
 8001324:	4b18      	ldr	r3, [pc, #96]	; (8001388 <TIM1_UP_TIM10_IRQHandler+0x300>)
 8001326:	681b      	ldr	r3, [r3, #0]
 8001328:	4a11      	ldr	r2, [pc, #68]	; (8001370 <TIM1_UP_TIM10_IRQHandler+0x2e8>)
 800132a:	085b      	lsrs	r3, r3, #1
 800132c:	6393      	str	r3, [r2, #56]	; 0x38
	TIM1->CCR3=(Tz/2 + T1 +T2);
 800132e:	4b16      	ldr	r3, [pc, #88]	; (8001388 <TIM1_UP_TIM10_IRQHandler+0x300>)
 8001330:	681b      	ldr	r3, [r3, #0]
 8001332:	085a      	lsrs	r2, r3, #1
 8001334:	4b12      	ldr	r3, [pc, #72]	; (8001380 <TIM1_UP_TIM10_IRQHandler+0x2f8>)
 8001336:	681b      	ldr	r3, [r3, #0]
 8001338:	441a      	add	r2, r3
 800133a:	4b12      	ldr	r3, [pc, #72]	; (8001384 <TIM1_UP_TIM10_IRQHandler+0x2fc>)
 800133c:	681b      	ldr	r3, [r3, #0]
 800133e:	490c      	ldr	r1, [pc, #48]	; (8001370 <TIM1_UP_TIM10_IRQHandler+0x2e8>)
 8001340:	4413      	add	r3, r2
 8001342:	63cb      	str	r3, [r1, #60]	; 0x3c
	break;
 8001344:	e03c      	b.n	80013c0 <TIM1_UP_TIM10_IRQHandler+0x338>
 8001346:	bf00      	nop
 8001348:	fdb20051 	.word	0xfdb20051
 800134c:	3ff0c151 	.word	0x3ff0c151
 8001350:	fc8b007a 	.word	0xfc8b007a
 8001354:	400921fa 	.word	0x400921fa
 8001358:	fdb20051 	.word	0xfdb20051
 800135c:	bff0c151 	.word	0xbff0c151
 8001360:	40012000 	.word	0x40012000
 8001364:	20000030 	.word	0x20000030
 8001368:	42700000 	.word	0x42700000
 800136c:	20000008 	.word	0x20000008
 8001370:	40010000 	.word	0x40010000
 8001374:	20000000 	.word	0x20000000
 8001378:	20000004 	.word	0x20000004
 800137c:	40668000 	.word	0x40668000
 8001380:	20000040 	.word	0x20000040
 8001384:	20000038 	.word	0x20000038
 8001388:	2000003c 	.word	0x2000003c

	case 6:
	TIM1->CCR1=(Tz/2 + T1 +T2);
 800138c:	4b3e      	ldr	r3, [pc, #248]	; (8001488 <TIM1_UP_TIM10_IRQHandler+0x400>)
 800138e:	681b      	ldr	r3, [r3, #0]
 8001390:	085a      	lsrs	r2, r3, #1
 8001392:	4b3e      	ldr	r3, [pc, #248]	; (800148c <TIM1_UP_TIM10_IRQHandler+0x404>)
 8001394:	681b      	ldr	r3, [r3, #0]
 8001396:	441a      	add	r2, r3
 8001398:	4b3d      	ldr	r3, [pc, #244]	; (8001490 <TIM1_UP_TIM10_IRQHandler+0x408>)
 800139a:	681b      	ldr	r3, [r3, #0]
 800139c:	493d      	ldr	r1, [pc, #244]	; (8001494 <TIM1_UP_TIM10_IRQHandler+0x40c>)
 800139e:	4413      	add	r3, r2
 80013a0:	634b      	str	r3, [r1, #52]	; 0x34
	TIM1->CCR2=(Tz/2);
 80013a2:	4b39      	ldr	r3, [pc, #228]	; (8001488 <TIM1_UP_TIM10_IRQHandler+0x400>)
 80013a4:	681b      	ldr	r3, [r3, #0]
 80013a6:	4a3b      	ldr	r2, [pc, #236]	; (8001494 <TIM1_UP_TIM10_IRQHandler+0x40c>)
 80013a8:	085b      	lsrs	r3, r3, #1
 80013aa:	6393      	str	r3, [r2, #56]	; 0x38
	TIM1->CCR3=(Tz/2 +T1);
 80013ac:	4b36      	ldr	r3, [pc, #216]	; (8001488 <TIM1_UP_TIM10_IRQHandler+0x400>)
 80013ae:	681b      	ldr	r3, [r3, #0]
 80013b0:	085a      	lsrs	r2, r3, #1
 80013b2:	4b36      	ldr	r3, [pc, #216]	; (800148c <TIM1_UP_TIM10_IRQHandler+0x404>)
 80013b4:	681b      	ldr	r3, [r3, #0]
 80013b6:	4937      	ldr	r1, [pc, #220]	; (8001494 <TIM1_UP_TIM10_IRQHandler+0x40c>)
 80013b8:	4413      	add	r3, r2
 80013ba:	63cb      	str	r3, [r1, #60]	; 0x3c
	break;
 80013bc:	e000      	b.n	80013c0 <TIM1_UP_TIM10_IRQHandler+0x338>

	default:
	break;
 80013be:	bf00      	nop
	}

	freq = (ADC1->DR)/50;  											// Read the Data Register
 80013c0:	4b35      	ldr	r3, [pc, #212]	; (8001498 <TIM1_UP_TIM10_IRQHandler+0x410>)
 80013c2:	6cdb      	ldr	r3, [r3, #76]	; 0x4c
 80013c4:	4a35      	ldr	r2, [pc, #212]	; (800149c <TIM1_UP_TIM10_IRQHandler+0x414>)
 80013c6:	fba2 2303 	umull	r2, r3, r2, r3
 80013ca:	091b      	lsrs	r3, r3, #4
 80013cc:	461a      	mov	r2, r3
 80013ce:	4b34      	ldr	r3, [pc, #208]	; (80014a0 <TIM1_UP_TIM10_IRQHandler+0x418>)
 80013d0:	601a      	str	r2, [r3, #0]
	M=freq/50.0;
 80013d2:	4b33      	ldr	r3, [pc, #204]	; (80014a0 <TIM1_UP_TIM10_IRQHandler+0x418>)
 80013d4:	681b      	ldr	r3, [r3, #0]
 80013d6:	4618      	mov	r0, r3
 80013d8:	f7ff f848 	bl	800046c <__aeabi_i2d>
 80013dc:	f04f 0200 	mov.w	r2, #0
 80013e0:	4b30      	ldr	r3, [pc, #192]	; (80014a4 <TIM1_UP_TIM10_IRQHandler+0x41c>)
 80013e2:	f7ff f9d7 	bl	8000794 <__aeabi_ddiv>
 80013e6:	4602      	mov	r2, r0
 80013e8:	460b      	mov	r3, r1
 80013ea:	4610      	mov	r0, r2
 80013ec:	4619      	mov	r1, r3
 80013ee:	f7ff fb89 	bl	8000b04 <__aeabi_d2f>
 80013f2:	4603      	mov	r3, r0
 80013f4:	4a2c      	ldr	r2, [pc, #176]	; (80014a8 <TIM1_UP_TIM10_IRQHandler+0x420>)
 80013f6:	6013      	str	r3, [r2, #0]
	if(M>1) M=1;
 80013f8:	4b2b      	ldr	r3, [pc, #172]	; (80014a8 <TIM1_UP_TIM10_IRQHandler+0x420>)
 80013fa:	edd3 7a00 	vldr	s15, [r3]
 80013fe:	eeb7 7a00 	vmov.f32	s14, #112	; 0x3f800000  1.0
 8001402:	eef4 7ac7 	vcmpe.f32	s15, s14
 8001406:	eef1 fa10 	vmrs	APSR_nzcv, fpscr
 800140a:	dd03      	ble.n	8001414 <TIM1_UP_TIM10_IRQHandler+0x38c>
 800140c:	4b26      	ldr	r3, [pc, #152]	; (80014a8 <TIM1_UP_TIM10_IRQHandler+0x420>)
 800140e:	f04f 527e 	mov.w	r2, #1065353216	; 0x3f800000
 8001412:	601a      	str	r2, [r3, #0]
	theta+=(freq*360/f);
 8001414:	4b25      	ldr	r3, [pc, #148]	; (80014ac <TIM1_UP_TIM10_IRQHandler+0x424>)
 8001416:	681b      	ldr	r3, [r3, #0]
 8001418:	4618      	mov	r0, r3
 800141a:	f7ff f839 	bl	8000490 <__aeabi_f2d>
 800141e:	4604      	mov	r4, r0
 8001420:	460d      	mov	r5, r1
 8001422:	4b1f      	ldr	r3, [pc, #124]	; (80014a0 <TIM1_UP_TIM10_IRQHandler+0x418>)
 8001424:	681b      	ldr	r3, [r3, #0]
 8001426:	f44f 72b4 	mov.w	r2, #360	; 0x168
 800142a:	fb02 f303 	mul.w	r3, r2, r3
 800142e:	4618      	mov	r0, r3
 8001430:	f7ff f81c 	bl	800046c <__aeabi_i2d>
 8001434:	a312      	add	r3, pc, #72	; (adr r3, 8001480 <TIM1_UP_TIM10_IRQHandler+0x3f8>)
 8001436:	e9d3 2300 	ldrd	r2, r3, [r3]
 800143a:	f7ff f9ab 	bl	8000794 <__aeabi_ddiv>
 800143e:	4602      	mov	r2, r0
 8001440:	460b      	mov	r3, r1
 8001442:	4620      	mov	r0, r4
 8001444:	4629      	mov	r1, r5
 8001446:	f7fe fec5 	bl	80001d4 <__adddf3>
 800144a:	4602      	mov	r2, r0
 800144c:	460b      	mov	r3, r1
 800144e:	4610      	mov	r0, r2
 8001450:	4619      	mov	r1, r3
 8001452:	f7ff fb57 	bl	8000b04 <__aeabi_d2f>
 8001456:	4603      	mov	r3, r0
 8001458:	4a14      	ldr	r2, [pc, #80]	; (80014ac <TIM1_UP_TIM10_IRQHandler+0x424>)
 800145a:	6013      	str	r3, [r2, #0]
	if(theta>=360) theta=0;
 800145c:	4b13      	ldr	r3, [pc, #76]	; (80014ac <TIM1_UP_TIM10_IRQHandler+0x424>)
 800145e:	edd3 7a00 	vldr	s15, [r3]
 8001462:	ed9f 7a13 	vldr	s14, [pc, #76]	; 80014b0 <TIM1_UP_TIM10_IRQHandler+0x428>
 8001466:	eef4 7ac7 	vcmpe.f32	s15, s14
 800146a:	eef1 fa10 	vmrs	APSR_nzcv, fpscr
 800146e:	da00      	bge.n	8001472 <TIM1_UP_TIM10_IRQHandler+0x3ea>
}
 8001470:	e003      	b.n	800147a <TIM1_UP_TIM10_IRQHandler+0x3f2>
	if(theta>=360) theta=0;
 8001472:	4b0e      	ldr	r3, [pc, #56]	; (80014ac <TIM1_UP_TIM10_IRQHandler+0x424>)
 8001474:	f04f 0200 	mov.w	r2, #0
 8001478:	601a      	str	r2, [r3, #0]
}
 800147a:	bf00      	nop
 800147c:	e8bd 83b0 	ldmia.w	sp!, {r4, r5, r7, r8, r9, pc}
 8001480:	00000000 	.word	0x00000000
 8001484:	40d38800 	.word	0x40d38800
 8001488:	2000003c 	.word	0x2000003c
 800148c:	20000040 	.word	0x20000040
 8001490:	20000038 	.word	0x20000038
 8001494:	40010000 	.word	0x40010000
 8001498:	40012000 	.word	0x40012000
 800149c:	51eb851f 	.word	0x51eb851f
 80014a0:	20000034 	.word	0x20000034
 80014a4:	40490000 	.word	0x40490000
 80014a8:	20000004 	.word	0x20000004
 80014ac:	20000030 	.word	0x20000030
 80014b0:	43b40000 	.word	0x43b40000

080014b4 <EXTI0_IRQHandler>:
/******************************************/
/***			EXTI0 INTERRUPT			***/
/******************************************/
void EXTI0_IRQHandler(void)
{
 80014b4:	b580      	push	{r7, lr}
 80014b6:	af00      	add	r7, sp, #0
	GPIOD->ODR ^= (GPIO_ODR_OD15);								// Toggle Leds
 80014b8:	4b14      	ldr	r3, [pc, #80]	; (800150c <EXTI0_IRQHandler+0x58>)
 80014ba:	695b      	ldr	r3, [r3, #20]
 80014bc:	4a13      	ldr	r2, [pc, #76]	; (800150c <EXTI0_IRQHandler+0x58>)
 80014be:	f483 4300 	eor.w	r3, r3, #32768	; 0x8000
 80014c2:	6153      	str	r3, [r2, #20]
	GPIOD->ODR ^= (GPIO_ODR_OD14);								// Toggle Leds
 80014c4:	4b11      	ldr	r3, [pc, #68]	; (800150c <EXTI0_IRQHandler+0x58>)
 80014c6:	695b      	ldr	r3, [r3, #20]
 80014c8:	4a10      	ldr	r2, [pc, #64]	; (800150c <EXTI0_IRQHandler+0x58>)
 80014ca:	f483 4380 	eor.w	r3, r3, #16384	; 0x4000
 80014ce:	6153      	str	r3, [r2, #20]
	GPIOD->ODR ^= (GPIO_ODR_OD13);								// Toggle Leds
 80014d0:	4b0e      	ldr	r3, [pc, #56]	; (800150c <EXTI0_IRQHandler+0x58>)
 80014d2:	695b      	ldr	r3, [r3, #20]
 80014d4:	4a0d      	ldr	r2, [pc, #52]	; (800150c <EXTI0_IRQHandler+0x58>)
 80014d6:	f483 5300 	eor.w	r3, r3, #8192	; 0x2000
 80014da:	6153      	str	r3, [r2, #20]
	GPIOD->ODR ^= (GPIO_ODR_OD12);								// Toggle Leds
 80014dc:	4b0b      	ldr	r3, [pc, #44]	; (800150c <EXTI0_IRQHandler+0x58>)
 80014de:	695b      	ldr	r3, [r3, #20]
 80014e0:	4a0a      	ldr	r2, [pc, #40]	; (800150c <EXTI0_IRQHandler+0x58>)
 80014e2:	f483 5380 	eor.w	r3, r3, #4096	; 0x1000
 80014e6:	6153      	str	r3, [r2, #20]


	TIM1->BDTR ^= (TIM_BDTR_MOE_Msk);							// Global output toggled for TIM1
 80014e8:	4b09      	ldr	r3, [pc, #36]	; (8001510 <EXTI0_IRQHandler+0x5c>)
 80014ea:	6c5b      	ldr	r3, [r3, #68]	; 0x44
 80014ec:	4a08      	ldr	r2, [pc, #32]	; (8001510 <EXTI0_IRQHandler+0x5c>)
 80014ee:	f483 4300 	eor.w	r3, r3, #32768	; 0x8000
 80014f2:	6453      	str	r3, [r2, #68]	; 0x44
	delay_ms(300);												// Delay to Prevent Button Bounce
 80014f4:	f44f 7096 	mov.w	r0, #300	; 0x12c
 80014f8:	f7ff fcae 	bl	8000e58 <delay_ms>
	EXTI->PR |= (1);											// Lower Interrupt flag
 80014fc:	4b05      	ldr	r3, [pc, #20]	; (8001514 <EXTI0_IRQHandler+0x60>)
 80014fe:	695b      	ldr	r3, [r3, #20]
 8001500:	4a04      	ldr	r2, [pc, #16]	; (8001514 <EXTI0_IRQHandler+0x60>)
 8001502:	f043 0301 	orr.w	r3, r3, #1
 8001506:	6153      	str	r3, [r2, #20]
}
 8001508:	bf00      	nop
 800150a:	bd80      	pop	{r7, pc}
 800150c:	40020c00 	.word	0x40020c00
 8001510:	40010000 	.word	0x40010000
 8001514:	40013c00 	.word	0x40013c00

08001518 <NMI_Handler>:
/******************************************************************************/
/**
  * @brief This function handles Non maskable interrupt.
  */
void NMI_Handler(void)
{
 8001518:	b480      	push	{r7}
 800151a:	af00      	add	r7, sp, #0
  /* USER CODE BEGIN NonMaskableInt_IRQn 0 */

  /* USER CODE END NonMaskableInt_IRQn 0 */
  /* USER CODE BEGIN NonMaskableInt_IRQn 1 */
  while (1)
 800151c:	e7fe      	b.n	800151c <NMI_Handler+0x4>

0800151e <HardFault_Handler>:

/**
  * @brief This function handles Hard fault interrupt.
  */
void HardFault_Handler(void)
{
 800151e:	b480      	push	{r7}
 8001520:	af00      	add	r7, sp, #0
  /* USER CODE BEGIN HardFault_IRQn 0 */

  /* USER CODE END HardFault_IRQn 0 */
  while (1)
 8001522:	e7fe      	b.n	8001522 <HardFault_Handler+0x4>

08001524 <MemManage_Handler>:

/**
  * @brief This function handles Memory management fault.
  */
void MemManage_Handler(void)
{
 8001524:	b480      	push	{r7}
 8001526:	af00      	add	r7, sp, #0
  /* USER CODE BEGIN MemoryManagement_IRQn 0 */

  /* USER CODE END MemoryManagement_IRQn 0 */
  while (1)
 8001528:	e7fe      	b.n	8001528 <MemManage_Handler+0x4>

0800152a <BusFault_Handler>:

/**
  * @brief This function handles Pre-fetch fault, memory access fault.
  */
void BusFault_Handler(void)
{
 800152a:	b480      	push	{r7}
 800152c:	af00      	add	r7, sp, #0
  /* USER CODE BEGIN BusFault_IRQn 0 */

  /* USER CODE END BusFault_IRQn 0 */
  while (1)
 800152e:	e7fe      	b.n	800152e <BusFault_Handler+0x4>

08001530 <UsageFault_Handler>:

/**
  * @brief This function handles Undefined instruction or illegal state.
  */
void UsageFault_Handler(void)
{
 8001530:	b480      	push	{r7}
 8001532:	af00      	add	r7, sp, #0
  /* USER CODE BEGIN UsageFault_IRQn 0 */

  /* USER CODE END UsageFault_IRQn 0 */
  while (1)
 8001534:	e7fe      	b.n	8001534 <UsageFault_Handler+0x4>

08001536 <SVC_Handler>:

/**
  * @brief This function handles System service call via SWI instruction.
  */
void SVC_Handler(void)
{
 8001536:	b480      	push	{r7}
 8001538:	af00      	add	r7, sp, #0

  /* USER CODE END SVCall_IRQn 0 */
  /* USER CODE BEGIN SVCall_IRQn 1 */

  /* USER CODE END SVCall_IRQn 1 */
}
 800153a:	bf00      	nop
 800153c:	46bd      	mov	sp, r7
 800153e:	f85d 7b04 	ldr.w	r7, [sp], #4
 8001542:	4770      	bx	lr

08001544 <DebugMon_Handler>:

/**
  * @brief This function handles Debug monitor.
  */
void DebugMon_Handler(void)
{
 8001544:	b480      	push	{r7}
 8001546:	af00      	add	r7, sp, #0

  /* USER CODE END DebugMonitor_IRQn 0 */
  /* USER CODE BEGIN DebugMonitor_IRQn 1 */

  /* USER CODE END DebugMonitor_IRQn 1 */
}
 8001548:	bf00      	nop
 800154a:	46bd      	mov	sp, r7
 800154c:	f85d 7b04 	ldr.w	r7, [sp], #4
 8001550:	4770      	bx	lr

08001552 <PendSV_Handler>:

/**
  * @brief This function handles Pendable request for system service.
  */
void PendSV_Handler(void)
{
 8001552:	b480      	push	{r7}
 8001554:	af00      	add	r7, sp, #0

  /* USER CODE END PendSV_IRQn 0 */
  /* USER CODE BEGIN PendSV_IRQn 1 */

  /* USER CODE END PendSV_IRQn 1 */
}
 8001556:	bf00      	nop
 8001558:	46bd      	mov	sp, r7
 800155a:	f85d 7b04 	ldr.w	r7, [sp], #4
 800155e:	4770      	bx	lr

08001560 <SysTick_Handler>:

/**
  * @brief This function handles System tick timer.
  */
void SysTick_Handler(void)
{
 8001560:	b580      	push	{r7, lr}
 8001562:	af00      	add	r7, sp, #0
  /* USER CODE BEGIN SysTick_IRQn 0 */

  /* USER CODE END SysTick_IRQn 0 */
  HAL_IncTick();
 8001564:	f000 f83e 	bl	80015e4 <HAL_IncTick>
  /* USER CODE BEGIN SysTick_IRQn 1 */

  /* USER CODE END SysTick_IRQn 1 */
}
 8001568:	bf00      	nop
 800156a:	bd80      	pop	{r7, pc}

0800156c <SystemInit>:
  *         configuration.
  * @param  None
  * @retval None
  */
void SystemInit(void)
{
 800156c:	b480      	push	{r7}
 800156e:	af00      	add	r7, sp, #0
  /* FPU settings ------------------------------------------------------------*/
  #if (__FPU_PRESENT == 1) && (__FPU_USED == 1)
    SCB->CPACR |= ((3UL << 10*2)|(3UL << 11*2));  /* set CP10 and CP11 Full Access */
 8001570:	4b06      	ldr	r3, [pc, #24]	; (800158c <SystemInit+0x20>)
 8001572:	f8d3 3088 	ldr.w	r3, [r3, #136]	; 0x88
 8001576:	4a05      	ldr	r2, [pc, #20]	; (800158c <SystemInit+0x20>)
 8001578:	f443 0370 	orr.w	r3, r3, #15728640	; 0xf00000
 800157c:	f8c2 3088 	str.w	r3, [r2, #136]	; 0x88

  /* Configure the Vector Table location -------------------------------------*/
#if defined(USER_VECT_TAB_ADDRESS)
  SCB->VTOR = VECT_TAB_BASE_ADDRESS | VECT_TAB_OFFSET; /* Vector Table Relocation in Internal SRAM */
#endif /* USER_VECT_TAB_ADDRESS */
}
 8001580:	bf00      	nop
 8001582:	46bd      	mov	sp, r7
 8001584:	f85d 7b04 	ldr.w	r7, [sp], #4
 8001588:	4770      	bx	lr
 800158a:	bf00      	nop
 800158c:	e000ed00 	.word	0xe000ed00

08001590 <Reset_Handler>:

    .section  .text.Reset_Handler
  .weak  Reset_Handler
  .type  Reset_Handler, %function
Reset_Handler:  
  ldr   sp, =_estack     /* set stack pointer */
 8001590:	f8df d034 	ldr.w	sp, [pc, #52]	; 80015c8 <LoopFillZerobss+0x12>

/* Copy the data segment initializers from flash to SRAM */  
  ldr r0, =_sdata
 8001594:	480d      	ldr	r0, [pc, #52]	; (80015cc <LoopFillZerobss+0x16>)
  ldr r1, =_edata
 8001596:	490e      	ldr	r1, [pc, #56]	; (80015d0 <LoopFillZerobss+0x1a>)
  ldr r2, =_sidata
 8001598:	4a0e      	ldr	r2, [pc, #56]	; (80015d4 <LoopFillZerobss+0x1e>)
  movs r3, #0
 800159a:	2300      	movs	r3, #0
  b LoopCopyDataInit
 800159c:	e002      	b.n	80015a4 <LoopCopyDataInit>

0800159e <CopyDataInit>:

CopyDataInit:
  ldr r4, [r2, r3]
 800159e:	58d4      	ldr	r4, [r2, r3]
  str r4, [r0, r3]
 80015a0:	50c4      	str	r4, [r0, r3]
  adds r3, r3, #4
 80015a2:	3304      	adds	r3, #4

080015a4 <LoopCopyDataInit>:

LoopCopyDataInit:
  adds r4, r0, r3
 80015a4:	18c4      	adds	r4, r0, r3
  cmp r4, r1
 80015a6:	428c      	cmp	r4, r1
  bcc CopyDataInit
 80015a8:	d3f9      	bcc.n	800159e <CopyDataInit>
  
/* Zero fill the bss segment. */
  ldr r2, =_sbss
 80015aa:	4a0b      	ldr	r2, [pc, #44]	; (80015d8 <LoopFillZerobss+0x22>)
  ldr r4, =_ebss
 80015ac:	4c0b      	ldr	r4, [pc, #44]	; (80015dc <LoopFillZerobss+0x26>)
  movs r3, #0
 80015ae:	2300      	movs	r3, #0
  b LoopFillZerobss
 80015b0:	e001      	b.n	80015b6 <LoopFillZerobss>

080015b2 <FillZerobss>:

FillZerobss:
  str  r3, [r2]
 80015b2:	6013      	str	r3, [r2, #0]
  adds r2, r2, #4
 80015b4:	3204      	adds	r2, #4

080015b6 <LoopFillZerobss>:

LoopFillZerobss:
  cmp r2, r4
 80015b6:	42a2      	cmp	r2, r4
  bcc FillZerobss
 80015b8:	d3fb      	bcc.n	80015b2 <FillZerobss>

/* Call the clock system intitialization function.*/
  bl  SystemInit   
 80015ba:	f7ff ffd7 	bl	800156c <SystemInit>
/* Call static constructors */
    bl __libc_init_array
 80015be:	f000 f825 	bl	800160c <__libc_init_array>
/* Call the application's entry point.*/
  bl  main
 80015c2:	f7ff fb37 	bl	8000c34 <main>
  bx  lr    
 80015c6:	4770      	bx	lr
  ldr   sp, =_estack     /* set stack pointer */
 80015c8:	20020000 	.word	0x20020000
  ldr r0, =_sdata
 80015cc:	20000000 	.word	0x20000000
  ldr r1, =_edata
 80015d0:	20000014 	.word	0x20000014
  ldr r2, =_sidata
 80015d4:	080028c0 	.word	0x080028c0
  ldr r2, =_sbss
 80015d8:	20000014 	.word	0x20000014
  ldr r4, =_ebss
 80015dc:	20000048 	.word	0x20000048

080015e0 <ADC_IRQHandler>:
 * @retval None       
*/
    .section  .text.Default_Handler,"ax",%progbits
Default_Handler:
Infinite_Loop:
  b  Infinite_Loop
 80015e0:	e7fe      	b.n	80015e0 <ADC_IRQHandler>
	...

080015e4 <HAL_IncTick>:
 * @note This function is declared as __weak to be overwritten in case of other 
  *      implementations in user file.
  * @retval None
  */
__weak void HAL_IncTick(void)
{
 80015e4:	b480      	push	{r7}
 80015e6:	af00      	add	r7, sp, #0
  uwTick += uwTickFreq;
 80015e8:	4b06      	ldr	r3, [pc, #24]	; (8001604 <HAL_IncTick+0x20>)
 80015ea:	781b      	ldrb	r3, [r3, #0]
 80015ec:	461a      	mov	r2, r3
 80015ee:	4b06      	ldr	r3, [pc, #24]	; (8001608 <HAL_IncTick+0x24>)
 80015f0:	681b      	ldr	r3, [r3, #0]
 80015f2:	4413      	add	r3, r2
 80015f4:	4a04      	ldr	r2, [pc, #16]	; (8001608 <HAL_IncTick+0x24>)
 80015f6:	6013      	str	r3, [r2, #0]
}
 80015f8:	bf00      	nop
 80015fa:	46bd      	mov	sp, r7
 80015fc:	f85d 7b04 	ldr.w	r7, [sp], #4
 8001600:	4770      	bx	lr
 8001602:	bf00      	nop
 8001604:	20000010 	.word	0x20000010
 8001608:	20000044 	.word	0x20000044

0800160c <__libc_init_array>:
 800160c:	b570      	push	{r4, r5, r6, lr}
 800160e:	4d0d      	ldr	r5, [pc, #52]	; (8001644 <__libc_init_array+0x38>)
 8001610:	4c0d      	ldr	r4, [pc, #52]	; (8001648 <__libc_init_array+0x3c>)
 8001612:	1b64      	subs	r4, r4, r5
 8001614:	10a4      	asrs	r4, r4, #2
 8001616:	2600      	movs	r6, #0
 8001618:	42a6      	cmp	r6, r4
 800161a:	d109      	bne.n	8001630 <__libc_init_array+0x24>
 800161c:	4d0b      	ldr	r5, [pc, #44]	; (800164c <__libc_init_array+0x40>)
 800161e:	4c0c      	ldr	r4, [pc, #48]	; (8001650 <__libc_init_array+0x44>)
 8001620:	f001 f850 	bl	80026c4 <_init>
 8001624:	1b64      	subs	r4, r4, r5
 8001626:	10a4      	asrs	r4, r4, #2
 8001628:	2600      	movs	r6, #0
 800162a:	42a6      	cmp	r6, r4
 800162c:	d105      	bne.n	800163a <__libc_init_array+0x2e>
 800162e:	bd70      	pop	{r4, r5, r6, pc}
 8001630:	f855 3b04 	ldr.w	r3, [r5], #4
 8001634:	4798      	blx	r3
 8001636:	3601      	adds	r6, #1
 8001638:	e7ee      	b.n	8001618 <__libc_init_array+0xc>
 800163a:	f855 3b04 	ldr.w	r3, [r5], #4
 800163e:	4798      	blx	r3
 8001640:	3601      	adds	r6, #1
 8001642:	e7f2      	b.n	800162a <__libc_init_array+0x1e>
 8001644:	080028b8 	.word	0x080028b8
 8001648:	080028b8 	.word	0x080028b8
 800164c:	080028b8 	.word	0x080028b8
 8001650:	080028bc 	.word	0x080028bc
 8001654:	00000000 	.word	0x00000000

08001658 <sin>:
 8001658:	b51f      	push	{r0, r1, r2, r3, r4, lr}
 800165a:	ec53 2b10 	vmov	r2, r3, d0
 800165e:	4826      	ldr	r0, [pc, #152]	; (80016f8 <sin+0xa0>)
 8001660:	f023 4100 	bic.w	r1, r3, #2147483648	; 0x80000000
 8001664:	4281      	cmp	r1, r0
 8001666:	dc07      	bgt.n	8001678 <sin+0x20>
 8001668:	ed9f 1b21 	vldr	d1, [pc, #132]	; 80016f0 <sin+0x98>
 800166c:	2000      	movs	r0, #0
 800166e:	f000 fe5b 	bl	8002328 <__kernel_sin>
 8001672:	ec51 0b10 	vmov	r0, r1, d0
 8001676:	e007      	b.n	8001688 <sin+0x30>
 8001678:	4820      	ldr	r0, [pc, #128]	; (80016fc <sin+0xa4>)
 800167a:	4281      	cmp	r1, r0
 800167c:	dd09      	ble.n	8001692 <sin+0x3a>
 800167e:	ee10 0a10 	vmov	r0, s0
 8001682:	4619      	mov	r1, r3
 8001684:	f7fe fda4 	bl	80001d0 <__aeabi_dsub>
 8001688:	ec41 0b10 	vmov	d0, r0, r1
 800168c:	b005      	add	sp, #20
 800168e:	f85d fb04 	ldr.w	pc, [sp], #4
 8001692:	4668      	mov	r0, sp
 8001694:	f000 f834 	bl	8001700 <__ieee754_rem_pio2>
 8001698:	f000 0003 	and.w	r0, r0, #3
 800169c:	2801      	cmp	r0, #1
 800169e:	d008      	beq.n	80016b2 <sin+0x5a>
 80016a0:	2802      	cmp	r0, #2
 80016a2:	d00d      	beq.n	80016c0 <sin+0x68>
 80016a4:	b9d0      	cbnz	r0, 80016dc <sin+0x84>
 80016a6:	ed9d 1b02 	vldr	d1, [sp, #8]
 80016aa:	ed9d 0b00 	vldr	d0, [sp]
 80016ae:	2001      	movs	r0, #1
 80016b0:	e7dd      	b.n	800166e <sin+0x16>
 80016b2:	ed9d 1b02 	vldr	d1, [sp, #8]
 80016b6:	ed9d 0b00 	vldr	d0, [sp]
 80016ba:	f000 fa2d 	bl	8001b18 <__kernel_cos>
 80016be:	e7d8      	b.n	8001672 <sin+0x1a>
 80016c0:	ed9d 1b02 	vldr	d1, [sp, #8]
 80016c4:	ed9d 0b00 	vldr	d0, [sp]
 80016c8:	2001      	movs	r0, #1
 80016ca:	f000 fe2d 	bl	8002328 <__kernel_sin>
 80016ce:	ec53 2b10 	vmov	r2, r3, d0
 80016d2:	ee10 0a10 	vmov	r0, s0
 80016d6:	f103 4100 	add.w	r1, r3, #2147483648	; 0x80000000
 80016da:	e7d5      	b.n	8001688 <sin+0x30>
 80016dc:	ed9d 1b02 	vldr	d1, [sp, #8]
 80016e0:	ed9d 0b00 	vldr	d0, [sp]
 80016e4:	f000 fa18 	bl	8001b18 <__kernel_cos>
 80016e8:	e7f1      	b.n	80016ce <sin+0x76>
 80016ea:	bf00      	nop
 80016ec:	f3af 8000 	nop.w
	...
 80016f8:	3fe921fb 	.word	0x3fe921fb
 80016fc:	7fefffff 	.word	0x7fefffff

08001700 <__ieee754_rem_pio2>:
 8001700:	e92d 4ff0 	stmdb	sp!, {r4, r5, r6, r7, r8, r9, sl, fp, lr}
 8001704:	ed2d 8b02 	vpush	{d8}
 8001708:	ec55 4b10 	vmov	r4, r5, d0
 800170c:	4bca      	ldr	r3, [pc, #808]	; (8001a38 <__ieee754_rem_pio2+0x338>)
 800170e:	b08b      	sub	sp, #44	; 0x2c
 8001710:	f025 4800 	bic.w	r8, r5, #2147483648	; 0x80000000
 8001714:	4598      	cmp	r8, r3
 8001716:	4682      	mov	sl, r0
 8001718:	9502      	str	r5, [sp, #8]
 800171a:	dc08      	bgt.n	800172e <__ieee754_rem_pio2+0x2e>
 800171c:	2200      	movs	r2, #0
 800171e:	2300      	movs	r3, #0
 8001720:	ed80 0b00 	vstr	d0, [r0]
 8001724:	e9c0 2302 	strd	r2, r3, [r0, #8]
 8001728:	f04f 0b00 	mov.w	fp, #0
 800172c:	e028      	b.n	8001780 <__ieee754_rem_pio2+0x80>
 800172e:	4bc3      	ldr	r3, [pc, #780]	; (8001a3c <__ieee754_rem_pio2+0x33c>)
 8001730:	4598      	cmp	r8, r3
 8001732:	dc78      	bgt.n	8001826 <__ieee754_rem_pio2+0x126>
 8001734:	9b02      	ldr	r3, [sp, #8]
 8001736:	4ec2      	ldr	r6, [pc, #776]	; (8001a40 <__ieee754_rem_pio2+0x340>)
 8001738:	2b00      	cmp	r3, #0
 800173a:	ee10 0a10 	vmov	r0, s0
 800173e:	a3b0      	add	r3, pc, #704	; (adr r3, 8001a00 <__ieee754_rem_pio2+0x300>)
 8001740:	e9d3 2300 	ldrd	r2, r3, [r3]
 8001744:	4629      	mov	r1, r5
 8001746:	dd39      	ble.n	80017bc <__ieee754_rem_pio2+0xbc>
 8001748:	f7fe fd42 	bl	80001d0 <__aeabi_dsub>
 800174c:	45b0      	cmp	r8, r6
 800174e:	4604      	mov	r4, r0
 8001750:	460d      	mov	r5, r1
 8001752:	d01b      	beq.n	800178c <__ieee754_rem_pio2+0x8c>
 8001754:	a3ac      	add	r3, pc, #688	; (adr r3, 8001a08 <__ieee754_rem_pio2+0x308>)
 8001756:	e9d3 2300 	ldrd	r2, r3, [r3]
 800175a:	f7fe fd39 	bl	80001d0 <__aeabi_dsub>
 800175e:	4602      	mov	r2, r0
 8001760:	460b      	mov	r3, r1
 8001762:	e9ca 2300 	strd	r2, r3, [sl]
 8001766:	4620      	mov	r0, r4
 8001768:	4629      	mov	r1, r5
 800176a:	f7fe fd31 	bl	80001d0 <__aeabi_dsub>
 800176e:	a3a6      	add	r3, pc, #664	; (adr r3, 8001a08 <__ieee754_rem_pio2+0x308>)
 8001770:	e9d3 2300 	ldrd	r2, r3, [r3]
 8001774:	f7fe fd2c 	bl	80001d0 <__aeabi_dsub>
 8001778:	e9ca 0102 	strd	r0, r1, [sl, #8]
 800177c:	f04f 0b01 	mov.w	fp, #1
 8001780:	4658      	mov	r0, fp
 8001782:	b00b      	add	sp, #44	; 0x2c
 8001784:	ecbd 8b02 	vpop	{d8}
 8001788:	e8bd 8ff0 	ldmia.w	sp!, {r4, r5, r6, r7, r8, r9, sl, fp, pc}
 800178c:	a3a0      	add	r3, pc, #640	; (adr r3, 8001a10 <__ieee754_rem_pio2+0x310>)
 800178e:	e9d3 2300 	ldrd	r2, r3, [r3]
 8001792:	f7fe fd1d 	bl	80001d0 <__aeabi_dsub>
 8001796:	a3a0      	add	r3, pc, #640	; (adr r3, 8001a18 <__ieee754_rem_pio2+0x318>)
 8001798:	e9d3 2300 	ldrd	r2, r3, [r3]
 800179c:	4604      	mov	r4, r0
 800179e:	460d      	mov	r5, r1
 80017a0:	f7fe fd16 	bl	80001d0 <__aeabi_dsub>
 80017a4:	4602      	mov	r2, r0
 80017a6:	460b      	mov	r3, r1
 80017a8:	e9ca 2300 	strd	r2, r3, [sl]
 80017ac:	4620      	mov	r0, r4
 80017ae:	4629      	mov	r1, r5
 80017b0:	f7fe fd0e 	bl	80001d0 <__aeabi_dsub>
 80017b4:	a398      	add	r3, pc, #608	; (adr r3, 8001a18 <__ieee754_rem_pio2+0x318>)
 80017b6:	e9d3 2300 	ldrd	r2, r3, [r3]
 80017ba:	e7db      	b.n	8001774 <__ieee754_rem_pio2+0x74>
 80017bc:	f7fe fd0a 	bl	80001d4 <__adddf3>
 80017c0:	45b0      	cmp	r8, r6
 80017c2:	4604      	mov	r4, r0
 80017c4:	460d      	mov	r5, r1
 80017c6:	d016      	beq.n	80017f6 <__ieee754_rem_pio2+0xf6>
 80017c8:	a38f      	add	r3, pc, #572	; (adr r3, 8001a08 <__ieee754_rem_pio2+0x308>)
 80017ca:	e9d3 2300 	ldrd	r2, r3, [r3]
 80017ce:	f7fe fd01 	bl	80001d4 <__adddf3>
 80017d2:	4602      	mov	r2, r0
 80017d4:	460b      	mov	r3, r1
 80017d6:	e9ca 2300 	strd	r2, r3, [sl]
 80017da:	4620      	mov	r0, r4
 80017dc:	4629      	mov	r1, r5
 80017de:	f7fe fcf7 	bl	80001d0 <__aeabi_dsub>
 80017e2:	a389      	add	r3, pc, #548	; (adr r3, 8001a08 <__ieee754_rem_pio2+0x308>)
 80017e4:	e9d3 2300 	ldrd	r2, r3, [r3]
 80017e8:	f7fe fcf4 	bl	80001d4 <__adddf3>
 80017ec:	f04f 3bff 	mov.w	fp, #4294967295
 80017f0:	e9ca 0102 	strd	r0, r1, [sl, #8]
 80017f4:	e7c4      	b.n	8001780 <__ieee754_rem_pio2+0x80>
 80017f6:	a386      	add	r3, pc, #536	; (adr r3, 8001a10 <__ieee754_rem_pio2+0x310>)
 80017f8:	e9d3 2300 	ldrd	r2, r3, [r3]
 80017fc:	f7fe fcea 	bl	80001d4 <__adddf3>
 8001800:	a385      	add	r3, pc, #532	; (adr r3, 8001a18 <__ieee754_rem_pio2+0x318>)
 8001802:	e9d3 2300 	ldrd	r2, r3, [r3]
 8001806:	4604      	mov	r4, r0
 8001808:	460d      	mov	r5, r1
 800180a:	f7fe fce3 	bl	80001d4 <__adddf3>
 800180e:	4602      	mov	r2, r0
 8001810:	460b      	mov	r3, r1
 8001812:	e9ca 2300 	strd	r2, r3, [sl]
 8001816:	4620      	mov	r0, r4
 8001818:	4629      	mov	r1, r5
 800181a:	f7fe fcd9 	bl	80001d0 <__aeabi_dsub>
 800181e:	a37e      	add	r3, pc, #504	; (adr r3, 8001a18 <__ieee754_rem_pio2+0x318>)
 8001820:	e9d3 2300 	ldrd	r2, r3, [r3]
 8001824:	e7e0      	b.n	80017e8 <__ieee754_rem_pio2+0xe8>
 8001826:	4b87      	ldr	r3, [pc, #540]	; (8001a44 <__ieee754_rem_pio2+0x344>)
 8001828:	4598      	cmp	r8, r3
 800182a:	f300 80d9 	bgt.w	80019e0 <__ieee754_rem_pio2+0x2e0>
 800182e:	f000 fe39 	bl	80024a4 <fabs>
 8001832:	ec55 4b10 	vmov	r4, r5, d0
 8001836:	ee10 0a10 	vmov	r0, s0
 800183a:	a379      	add	r3, pc, #484	; (adr r3, 8001a20 <__ieee754_rem_pio2+0x320>)
 800183c:	e9d3 2300 	ldrd	r2, r3, [r3]
 8001840:	4629      	mov	r1, r5
 8001842:	f7fe fe7d 	bl	8000540 <__aeabi_dmul>
 8001846:	4b80      	ldr	r3, [pc, #512]	; (8001a48 <__ieee754_rem_pio2+0x348>)
 8001848:	2200      	movs	r2, #0
 800184a:	f7fe fcc3 	bl	80001d4 <__adddf3>
 800184e:	f7ff f911 	bl	8000a74 <__aeabi_d2iz>
 8001852:	4683      	mov	fp, r0
 8001854:	f7fe fe0a 	bl	800046c <__aeabi_i2d>
 8001858:	4602      	mov	r2, r0
 800185a:	460b      	mov	r3, r1
 800185c:	ec43 2b18 	vmov	d8, r2, r3
 8001860:	a367      	add	r3, pc, #412	; (adr r3, 8001a00 <__ieee754_rem_pio2+0x300>)
 8001862:	e9d3 2300 	ldrd	r2, r3, [r3]
 8001866:	f7fe fe6b 	bl	8000540 <__aeabi_dmul>
 800186a:	4602      	mov	r2, r0
 800186c:	460b      	mov	r3, r1
 800186e:	4620      	mov	r0, r4
 8001870:	4629      	mov	r1, r5
 8001872:	f7fe fcad 	bl	80001d0 <__aeabi_dsub>
 8001876:	a364      	add	r3, pc, #400	; (adr r3, 8001a08 <__ieee754_rem_pio2+0x308>)
 8001878:	e9d3 2300 	ldrd	r2, r3, [r3]
 800187c:	4606      	mov	r6, r0
 800187e:	460f      	mov	r7, r1
 8001880:	ec51 0b18 	vmov	r0, r1, d8
 8001884:	f7fe fe5c 	bl	8000540 <__aeabi_dmul>
 8001888:	f1bb 0f1f 	cmp.w	fp, #31
 800188c:	4604      	mov	r4, r0
 800188e:	460d      	mov	r5, r1
 8001890:	dc0d      	bgt.n	80018ae <__ieee754_rem_pio2+0x1ae>
 8001892:	4b6e      	ldr	r3, [pc, #440]	; (8001a4c <__ieee754_rem_pio2+0x34c>)
 8001894:	f10b 32ff 	add.w	r2, fp, #4294967295
 8001898:	f853 3022 	ldr.w	r3, [r3, r2, lsl #2]
 800189c:	4543      	cmp	r3, r8
 800189e:	d006      	beq.n	80018ae <__ieee754_rem_pio2+0x1ae>
 80018a0:	4622      	mov	r2, r4
 80018a2:	462b      	mov	r3, r5
 80018a4:	4630      	mov	r0, r6
 80018a6:	4639      	mov	r1, r7
 80018a8:	f7fe fc92 	bl	80001d0 <__aeabi_dsub>
 80018ac:	e00f      	b.n	80018ce <__ieee754_rem_pio2+0x1ce>
 80018ae:	462b      	mov	r3, r5
 80018b0:	4622      	mov	r2, r4
 80018b2:	4630      	mov	r0, r6
 80018b4:	4639      	mov	r1, r7
 80018b6:	f7fe fc8b 	bl	80001d0 <__aeabi_dsub>
 80018ba:	ea4f 5328 	mov.w	r3, r8, asr #20
 80018be:	9303      	str	r3, [sp, #12]
 80018c0:	f3c1 530a 	ubfx	r3, r1, #20, #11
 80018c4:	ebc3 5818 	rsb	r8, r3, r8, lsr #20
 80018c8:	f1b8 0f10 	cmp.w	r8, #16
 80018cc:	dc02      	bgt.n	80018d4 <__ieee754_rem_pio2+0x1d4>
 80018ce:	e9ca 0100 	strd	r0, r1, [sl]
 80018d2:	e039      	b.n	8001948 <__ieee754_rem_pio2+0x248>
 80018d4:	a34e      	add	r3, pc, #312	; (adr r3, 8001a10 <__ieee754_rem_pio2+0x310>)
 80018d6:	e9d3 2300 	ldrd	r2, r3, [r3]
 80018da:	ec51 0b18 	vmov	r0, r1, d8
 80018de:	f7fe fe2f 	bl	8000540 <__aeabi_dmul>
 80018e2:	4604      	mov	r4, r0
 80018e4:	460d      	mov	r5, r1
 80018e6:	4602      	mov	r2, r0
 80018e8:	460b      	mov	r3, r1
 80018ea:	4630      	mov	r0, r6
 80018ec:	4639      	mov	r1, r7
 80018ee:	f7fe fc6f 	bl	80001d0 <__aeabi_dsub>
 80018f2:	4602      	mov	r2, r0
 80018f4:	460b      	mov	r3, r1
 80018f6:	4680      	mov	r8, r0
 80018f8:	4689      	mov	r9, r1
 80018fa:	4630      	mov	r0, r6
 80018fc:	4639      	mov	r1, r7
 80018fe:	f7fe fc67 	bl	80001d0 <__aeabi_dsub>
 8001902:	4622      	mov	r2, r4
 8001904:	462b      	mov	r3, r5
 8001906:	f7fe fc63 	bl	80001d0 <__aeabi_dsub>
 800190a:	a343      	add	r3, pc, #268	; (adr r3, 8001a18 <__ieee754_rem_pio2+0x318>)
 800190c:	e9d3 2300 	ldrd	r2, r3, [r3]
 8001910:	4604      	mov	r4, r0
 8001912:	460d      	mov	r5, r1
 8001914:	ec51 0b18 	vmov	r0, r1, d8
 8001918:	f7fe fe12 	bl	8000540 <__aeabi_dmul>
 800191c:	4622      	mov	r2, r4
 800191e:	462b      	mov	r3, r5
 8001920:	f7fe fc56 	bl	80001d0 <__aeabi_dsub>
 8001924:	4602      	mov	r2, r0
 8001926:	460b      	mov	r3, r1
 8001928:	4604      	mov	r4, r0
 800192a:	460d      	mov	r5, r1
 800192c:	4640      	mov	r0, r8
 800192e:	4649      	mov	r1, r9
 8001930:	f7fe fc4e 	bl	80001d0 <__aeabi_dsub>
 8001934:	9a03      	ldr	r2, [sp, #12]
 8001936:	f3c1 530a 	ubfx	r3, r1, #20, #11
 800193a:	1ad3      	subs	r3, r2, r3
 800193c:	2b31      	cmp	r3, #49	; 0x31
 800193e:	dc24      	bgt.n	800198a <__ieee754_rem_pio2+0x28a>
 8001940:	e9ca 0100 	strd	r0, r1, [sl]
 8001944:	4646      	mov	r6, r8
 8001946:	464f      	mov	r7, r9
 8001948:	e9da 8900 	ldrd	r8, r9, [sl]
 800194c:	4630      	mov	r0, r6
 800194e:	4642      	mov	r2, r8
 8001950:	464b      	mov	r3, r9
 8001952:	4639      	mov	r1, r7
 8001954:	f7fe fc3c 	bl	80001d0 <__aeabi_dsub>
 8001958:	462b      	mov	r3, r5
 800195a:	4622      	mov	r2, r4
 800195c:	f7fe fc38 	bl	80001d0 <__aeabi_dsub>
 8001960:	9b02      	ldr	r3, [sp, #8]
 8001962:	2b00      	cmp	r3, #0
 8001964:	e9ca 0102 	strd	r0, r1, [sl, #8]
 8001968:	f6bf af0a 	bge.w	8001780 <__ieee754_rem_pio2+0x80>
 800196c:	f109 4300 	add.w	r3, r9, #2147483648	; 0x80000000
 8001970:	f8ca 3004 	str.w	r3, [sl, #4]
 8001974:	f8ca 8000 	str.w	r8, [sl]
 8001978:	f8ca 0008 	str.w	r0, [sl, #8]
 800197c:	f101 4300 	add.w	r3, r1, #2147483648	; 0x80000000
 8001980:	f8ca 300c 	str.w	r3, [sl, #12]
 8001984:	f1cb 0b00 	rsb	fp, fp, #0
 8001988:	e6fa      	b.n	8001780 <__ieee754_rem_pio2+0x80>
 800198a:	a327      	add	r3, pc, #156	; (adr r3, 8001a28 <__ieee754_rem_pio2+0x328>)
 800198c:	e9d3 2300 	ldrd	r2, r3, [r3]
 8001990:	ec51 0b18 	vmov	r0, r1, d8
 8001994:	f7fe fdd4 	bl	8000540 <__aeabi_dmul>
 8001998:	4604      	mov	r4, r0
 800199a:	460d      	mov	r5, r1
 800199c:	4602      	mov	r2, r0
 800199e:	460b      	mov	r3, r1
 80019a0:	4640      	mov	r0, r8
 80019a2:	4649      	mov	r1, r9
 80019a4:	f7fe fc14 	bl	80001d0 <__aeabi_dsub>
 80019a8:	4602      	mov	r2, r0
 80019aa:	460b      	mov	r3, r1
 80019ac:	4606      	mov	r6, r0
 80019ae:	460f      	mov	r7, r1
 80019b0:	4640      	mov	r0, r8
 80019b2:	4649      	mov	r1, r9
 80019b4:	f7fe fc0c 	bl	80001d0 <__aeabi_dsub>
 80019b8:	4622      	mov	r2, r4
 80019ba:	462b      	mov	r3, r5
 80019bc:	f7fe fc08 	bl	80001d0 <__aeabi_dsub>
 80019c0:	a31b      	add	r3, pc, #108	; (adr r3, 8001a30 <__ieee754_rem_pio2+0x330>)
 80019c2:	e9d3 2300 	ldrd	r2, r3, [r3]
 80019c6:	4604      	mov	r4, r0
 80019c8:	460d      	mov	r5, r1
 80019ca:	ec51 0b18 	vmov	r0, r1, d8
 80019ce:	f7fe fdb7 	bl	8000540 <__aeabi_dmul>
 80019d2:	4622      	mov	r2, r4
 80019d4:	462b      	mov	r3, r5
 80019d6:	f7fe fbfb 	bl	80001d0 <__aeabi_dsub>
 80019da:	4604      	mov	r4, r0
 80019dc:	460d      	mov	r5, r1
 80019de:	e75f      	b.n	80018a0 <__ieee754_rem_pio2+0x1a0>
 80019e0:	4b1b      	ldr	r3, [pc, #108]	; (8001a50 <__ieee754_rem_pio2+0x350>)
 80019e2:	4598      	cmp	r8, r3
 80019e4:	dd36      	ble.n	8001a54 <__ieee754_rem_pio2+0x354>
 80019e6:	ee10 2a10 	vmov	r2, s0
 80019ea:	462b      	mov	r3, r5
 80019ec:	4620      	mov	r0, r4
 80019ee:	4629      	mov	r1, r5
 80019f0:	f7fe fbee 	bl	80001d0 <__aeabi_dsub>
 80019f4:	e9ca 0102 	strd	r0, r1, [sl, #8]
 80019f8:	e9ca 0100 	strd	r0, r1, [sl]
 80019fc:	e694      	b.n	8001728 <__ieee754_rem_pio2+0x28>
 80019fe:	bf00      	nop
 8001a00:	54400000 	.word	0x54400000
 8001a04:	3ff921fb 	.word	0x3ff921fb
 8001a08:	1a626331 	.word	0x1a626331
 8001a0c:	3dd0b461 	.word	0x3dd0b461
 8001a10:	1a600000 	.word	0x1a600000
 8001a14:	3dd0b461 	.word	0x3dd0b461
 8001a18:	2e037073 	.word	0x2e037073
 8001a1c:	3ba3198a 	.word	0x3ba3198a
 8001a20:	6dc9c883 	.word	0x6dc9c883
 8001a24:	3fe45f30 	.word	0x3fe45f30
 8001a28:	2e000000 	.word	0x2e000000
 8001a2c:	3ba3198a 	.word	0x3ba3198a
 8001a30:	252049c1 	.word	0x252049c1
 8001a34:	397b839a 	.word	0x397b839a
 8001a38:	3fe921fb 	.word	0x3fe921fb
 8001a3c:	4002d97b 	.word	0x4002d97b
 8001a40:	3ff921fb 	.word	0x3ff921fb
 8001a44:	413921fb 	.word	0x413921fb
 8001a48:	3fe00000 	.word	0x3fe00000
 8001a4c:	080026e0 	.word	0x080026e0
 8001a50:	7fefffff 	.word	0x7fefffff
 8001a54:	ea4f 5428 	mov.w	r4, r8, asr #20
 8001a58:	f2a4 4416 	subw	r4, r4, #1046	; 0x416
 8001a5c:	ee10 0a10 	vmov	r0, s0
 8001a60:	eba8 5104 	sub.w	r1, r8, r4, lsl #20
 8001a64:	ee10 6a10 	vmov	r6, s0
 8001a68:	460f      	mov	r7, r1
 8001a6a:	f7ff f803 	bl	8000a74 <__aeabi_d2iz>
 8001a6e:	f7fe fcfd 	bl	800046c <__aeabi_i2d>
 8001a72:	4602      	mov	r2, r0
 8001a74:	460b      	mov	r3, r1
 8001a76:	4630      	mov	r0, r6
 8001a78:	4639      	mov	r1, r7
 8001a7a:	e9cd 2304 	strd	r2, r3, [sp, #16]
 8001a7e:	f7fe fba7 	bl	80001d0 <__aeabi_dsub>
 8001a82:	4b22      	ldr	r3, [pc, #136]	; (8001b0c <__ieee754_rem_pio2+0x40c>)
 8001a84:	2200      	movs	r2, #0
 8001a86:	f7fe fd5b 	bl	8000540 <__aeabi_dmul>
 8001a8a:	460f      	mov	r7, r1
 8001a8c:	4606      	mov	r6, r0
 8001a8e:	f7fe fff1 	bl	8000a74 <__aeabi_d2iz>
 8001a92:	f7fe fceb 	bl	800046c <__aeabi_i2d>
 8001a96:	4602      	mov	r2, r0
 8001a98:	460b      	mov	r3, r1
 8001a9a:	4630      	mov	r0, r6
 8001a9c:	4639      	mov	r1, r7
 8001a9e:	e9cd 2306 	strd	r2, r3, [sp, #24]
 8001aa2:	f7fe fb95 	bl	80001d0 <__aeabi_dsub>
 8001aa6:	4b19      	ldr	r3, [pc, #100]	; (8001b0c <__ieee754_rem_pio2+0x40c>)
 8001aa8:	2200      	movs	r2, #0
 8001aaa:	f7fe fd49 	bl	8000540 <__aeabi_dmul>
 8001aae:	e9cd 0108 	strd	r0, r1, [sp, #32]
 8001ab2:	ad04      	add	r5, sp, #16
 8001ab4:	f04f 0803 	mov.w	r8, #3
 8001ab8:	46a9      	mov	r9, r5
 8001aba:	2600      	movs	r6, #0
 8001abc:	2700      	movs	r7, #0
 8001abe:	4632      	mov	r2, r6
 8001ac0:	463b      	mov	r3, r7
 8001ac2:	e9d5 0104 	ldrd	r0, r1, [r5, #16]
 8001ac6:	46c3      	mov	fp, r8
 8001ac8:	3d08      	subs	r5, #8
 8001aca:	f108 38ff 	add.w	r8, r8, #4294967295
 8001ace:	f7fe ff9f 	bl	8000a10 <__aeabi_dcmpeq>
 8001ad2:	2800      	cmp	r0, #0
 8001ad4:	d1f3      	bne.n	8001abe <__ieee754_rem_pio2+0x3be>
 8001ad6:	4b0e      	ldr	r3, [pc, #56]	; (8001b10 <__ieee754_rem_pio2+0x410>)
 8001ad8:	9301      	str	r3, [sp, #4]
 8001ada:	2302      	movs	r3, #2
 8001adc:	9300      	str	r3, [sp, #0]
 8001ade:	4622      	mov	r2, r4
 8001ae0:	465b      	mov	r3, fp
 8001ae2:	4651      	mov	r1, sl
 8001ae4:	4648      	mov	r0, r9
 8001ae6:	f000 f8df 	bl	8001ca8 <__kernel_rem_pio2>
 8001aea:	9b02      	ldr	r3, [sp, #8]
 8001aec:	2b00      	cmp	r3, #0
 8001aee:	4683      	mov	fp, r0
 8001af0:	f6bf ae46 	bge.w	8001780 <__ieee754_rem_pio2+0x80>
 8001af4:	f8da 3004 	ldr.w	r3, [sl, #4]
 8001af8:	f103 4300 	add.w	r3, r3, #2147483648	; 0x80000000
 8001afc:	f8ca 3004 	str.w	r3, [sl, #4]
 8001b00:	f8da 300c 	ldr.w	r3, [sl, #12]
 8001b04:	f103 4300 	add.w	r3, r3, #2147483648	; 0x80000000
 8001b08:	e73a      	b.n	8001980 <__ieee754_rem_pio2+0x280>
 8001b0a:	bf00      	nop
 8001b0c:	41700000 	.word	0x41700000
 8001b10:	08002760 	.word	0x08002760
 8001b14:	00000000 	.word	0x00000000

08001b18 <__kernel_cos>:
 8001b18:	e92d 4ff7 	stmdb	sp!, {r0, r1, r2, r4, r5, r6, r7, r8, r9, sl, fp, lr}
 8001b1c:	ec57 6b10 	vmov	r6, r7, d0
 8001b20:	f027 4800 	bic.w	r8, r7, #2147483648	; 0x80000000
 8001b24:	f1b8 5f79 	cmp.w	r8, #1044381696	; 0x3e400000
 8001b28:	ed8d 1b00 	vstr	d1, [sp]
 8001b2c:	da07      	bge.n	8001b3e <__kernel_cos+0x26>
 8001b2e:	ee10 0a10 	vmov	r0, s0
 8001b32:	4639      	mov	r1, r7
 8001b34:	f7fe ff9e 	bl	8000a74 <__aeabi_d2iz>
 8001b38:	2800      	cmp	r0, #0
 8001b3a:	f000 8088 	beq.w	8001c4e <__kernel_cos+0x136>
 8001b3e:	4632      	mov	r2, r6
 8001b40:	463b      	mov	r3, r7
 8001b42:	4630      	mov	r0, r6
 8001b44:	4639      	mov	r1, r7
 8001b46:	f7fe fcfb 	bl	8000540 <__aeabi_dmul>
 8001b4a:	4b51      	ldr	r3, [pc, #324]	; (8001c90 <__kernel_cos+0x178>)
 8001b4c:	2200      	movs	r2, #0
 8001b4e:	4604      	mov	r4, r0
 8001b50:	460d      	mov	r5, r1
 8001b52:	f7fe fcf5 	bl	8000540 <__aeabi_dmul>
 8001b56:	a340      	add	r3, pc, #256	; (adr r3, 8001c58 <__kernel_cos+0x140>)
 8001b58:	e9d3 2300 	ldrd	r2, r3, [r3]
 8001b5c:	4682      	mov	sl, r0
 8001b5e:	468b      	mov	fp, r1
 8001b60:	4620      	mov	r0, r4
 8001b62:	4629      	mov	r1, r5
 8001b64:	f7fe fcec 	bl	8000540 <__aeabi_dmul>
 8001b68:	a33d      	add	r3, pc, #244	; (adr r3, 8001c60 <__kernel_cos+0x148>)
 8001b6a:	e9d3 2300 	ldrd	r2, r3, [r3]
 8001b6e:	f7fe fb31 	bl	80001d4 <__adddf3>
 8001b72:	4622      	mov	r2, r4
 8001b74:	462b      	mov	r3, r5
 8001b76:	f7fe fce3 	bl	8000540 <__aeabi_dmul>
 8001b7a:	a33b      	add	r3, pc, #236	; (adr r3, 8001c68 <__kernel_cos+0x150>)
 8001b7c:	e9d3 2300 	ldrd	r2, r3, [r3]
 8001b80:	f7fe fb26 	bl	80001d0 <__aeabi_dsub>
 8001b84:	4622      	mov	r2, r4
 8001b86:	462b      	mov	r3, r5
 8001b88:	f7fe fcda 	bl	8000540 <__aeabi_dmul>
 8001b8c:	a338      	add	r3, pc, #224	; (adr r3, 8001c70 <__kernel_cos+0x158>)
 8001b8e:	e9d3 2300 	ldrd	r2, r3, [r3]
 8001b92:	f7fe fb1f 	bl	80001d4 <__adddf3>
 8001b96:	4622      	mov	r2, r4
 8001b98:	462b      	mov	r3, r5
 8001b9a:	f7fe fcd1 	bl	8000540 <__aeabi_dmul>
 8001b9e:	a336      	add	r3, pc, #216	; (adr r3, 8001c78 <__kernel_cos+0x160>)
 8001ba0:	e9d3 2300 	ldrd	r2, r3, [r3]
 8001ba4:	f7fe fb14 	bl	80001d0 <__aeabi_dsub>
 8001ba8:	4622      	mov	r2, r4
 8001baa:	462b      	mov	r3, r5
 8001bac:	f7fe fcc8 	bl	8000540 <__aeabi_dmul>
 8001bb0:	a333      	add	r3, pc, #204	; (adr r3, 8001c80 <__kernel_cos+0x168>)
 8001bb2:	e9d3 2300 	ldrd	r2, r3, [r3]
 8001bb6:	f7fe fb0d 	bl	80001d4 <__adddf3>
 8001bba:	4622      	mov	r2, r4
 8001bbc:	462b      	mov	r3, r5
 8001bbe:	f7fe fcbf 	bl	8000540 <__aeabi_dmul>
 8001bc2:	4622      	mov	r2, r4
 8001bc4:	462b      	mov	r3, r5
 8001bc6:	f7fe fcbb 	bl	8000540 <__aeabi_dmul>
 8001bca:	e9dd 2300 	ldrd	r2, r3, [sp]
 8001bce:	4604      	mov	r4, r0
 8001bd0:	460d      	mov	r5, r1
 8001bd2:	4630      	mov	r0, r6
 8001bd4:	4639      	mov	r1, r7
 8001bd6:	f7fe fcb3 	bl	8000540 <__aeabi_dmul>
 8001bda:	460b      	mov	r3, r1
 8001bdc:	4602      	mov	r2, r0
 8001bde:	4629      	mov	r1, r5
 8001be0:	4620      	mov	r0, r4
 8001be2:	f7fe faf5 	bl	80001d0 <__aeabi_dsub>
 8001be6:	4b2b      	ldr	r3, [pc, #172]	; (8001c94 <__kernel_cos+0x17c>)
 8001be8:	4598      	cmp	r8, r3
 8001bea:	4606      	mov	r6, r0
 8001bec:	460f      	mov	r7, r1
 8001bee:	dc10      	bgt.n	8001c12 <__kernel_cos+0xfa>
 8001bf0:	4602      	mov	r2, r0
 8001bf2:	460b      	mov	r3, r1
 8001bf4:	4650      	mov	r0, sl
 8001bf6:	4659      	mov	r1, fp
 8001bf8:	f7fe faea 	bl	80001d0 <__aeabi_dsub>
 8001bfc:	460b      	mov	r3, r1
 8001bfe:	4926      	ldr	r1, [pc, #152]	; (8001c98 <__kernel_cos+0x180>)
 8001c00:	4602      	mov	r2, r0
 8001c02:	2000      	movs	r0, #0
 8001c04:	f7fe fae4 	bl	80001d0 <__aeabi_dsub>
 8001c08:	ec41 0b10 	vmov	d0, r0, r1
 8001c0c:	b003      	add	sp, #12
 8001c0e:	e8bd 8ff0 	ldmia.w	sp!, {r4, r5, r6, r7, r8, r9, sl, fp, pc}
 8001c12:	4b22      	ldr	r3, [pc, #136]	; (8001c9c <__kernel_cos+0x184>)
 8001c14:	4920      	ldr	r1, [pc, #128]	; (8001c98 <__kernel_cos+0x180>)
 8001c16:	4598      	cmp	r8, r3
 8001c18:	bfcc      	ite	gt
 8001c1a:	4d21      	ldrgt	r5, [pc, #132]	; (8001ca0 <__kernel_cos+0x188>)
 8001c1c:	f5a8 1500 	suble.w	r5, r8, #2097152	; 0x200000
 8001c20:	2400      	movs	r4, #0
 8001c22:	4622      	mov	r2, r4
 8001c24:	462b      	mov	r3, r5
 8001c26:	2000      	movs	r0, #0
 8001c28:	f7fe fad2 	bl	80001d0 <__aeabi_dsub>
 8001c2c:	4622      	mov	r2, r4
 8001c2e:	4680      	mov	r8, r0
 8001c30:	4689      	mov	r9, r1
 8001c32:	462b      	mov	r3, r5
 8001c34:	4650      	mov	r0, sl
 8001c36:	4659      	mov	r1, fp
 8001c38:	f7fe faca 	bl	80001d0 <__aeabi_dsub>
 8001c3c:	4632      	mov	r2, r6
 8001c3e:	463b      	mov	r3, r7
 8001c40:	f7fe fac6 	bl	80001d0 <__aeabi_dsub>
 8001c44:	4602      	mov	r2, r0
 8001c46:	460b      	mov	r3, r1
 8001c48:	4640      	mov	r0, r8
 8001c4a:	4649      	mov	r1, r9
 8001c4c:	e7da      	b.n	8001c04 <__kernel_cos+0xec>
 8001c4e:	ed9f 0b0e 	vldr	d0, [pc, #56]	; 8001c88 <__kernel_cos+0x170>
 8001c52:	e7db      	b.n	8001c0c <__kernel_cos+0xf4>
 8001c54:	f3af 8000 	nop.w
 8001c58:	be8838d4 	.word	0xbe8838d4
 8001c5c:	bda8fae9 	.word	0xbda8fae9
 8001c60:	bdb4b1c4 	.word	0xbdb4b1c4
 8001c64:	3e21ee9e 	.word	0x3e21ee9e
 8001c68:	809c52ad 	.word	0x809c52ad
 8001c6c:	3e927e4f 	.word	0x3e927e4f
 8001c70:	19cb1590 	.word	0x19cb1590
 8001c74:	3efa01a0 	.word	0x3efa01a0
 8001c78:	16c15177 	.word	0x16c15177
 8001c7c:	3f56c16c 	.word	0x3f56c16c
 8001c80:	5555554c 	.word	0x5555554c
 8001c84:	3fa55555 	.word	0x3fa55555
 8001c88:	00000000 	.word	0x00000000
 8001c8c:	3ff00000 	.word	0x3ff00000
 8001c90:	3fe00000 	.word	0x3fe00000
 8001c94:	3fd33332 	.word	0x3fd33332
 8001c98:	3ff00000 	.word	0x3ff00000
 8001c9c:	3fe90000 	.word	0x3fe90000
 8001ca0:	3fd20000 	.word	0x3fd20000
 8001ca4:	00000000 	.word	0x00000000

08001ca8 <__kernel_rem_pio2>:
 8001ca8:	e92d 4ff0 	stmdb	sp!, {r4, r5, r6, r7, r8, r9, sl, fp, lr}
 8001cac:	ed2d 8b02 	vpush	{d8}
 8001cb0:	f5ad 7d19 	sub.w	sp, sp, #612	; 0x264
 8001cb4:	f112 0f14 	cmn.w	r2, #20
 8001cb8:	9308      	str	r3, [sp, #32]
 8001cba:	9101      	str	r1, [sp, #4]
 8001cbc:	4bc6      	ldr	r3, [pc, #792]	; (8001fd8 <__kernel_rem_pio2+0x330>)
 8001cbe:	99a4      	ldr	r1, [sp, #656]	; 0x290
 8001cc0:	9009      	str	r0, [sp, #36]	; 0x24
 8001cc2:	f853 3021 	ldr.w	r3, [r3, r1, lsl #2]
 8001cc6:	9304      	str	r3, [sp, #16]
 8001cc8:	9b08      	ldr	r3, [sp, #32]
 8001cca:	f103 33ff 	add.w	r3, r3, #4294967295
 8001cce:	bfa8      	it	ge
 8001cd0:	1ed4      	subge	r4, r2, #3
 8001cd2:	9306      	str	r3, [sp, #24]
 8001cd4:	bfb2      	itee	lt
 8001cd6:	2400      	movlt	r4, #0
 8001cd8:	2318      	movge	r3, #24
 8001cda:	fb94 f4f3 	sdivge	r4, r4, r3
 8001cde:	f06f 0317 	mvn.w	r3, #23
 8001ce2:	fb04 3303 	mla	r3, r4, r3, r3
 8001ce6:	eb03 0a02 	add.w	sl, r3, r2
 8001cea:	9b04      	ldr	r3, [sp, #16]
 8001cec:	9a06      	ldr	r2, [sp, #24]
 8001cee:	ed9f 8bb6 	vldr	d8, [pc, #728]	; 8001fc8 <__kernel_rem_pio2+0x320>
 8001cf2:	eb03 0802 	add.w	r8, r3, r2
 8001cf6:	9ba5      	ldr	r3, [sp, #660]	; 0x294
 8001cf8:	1aa7      	subs	r7, r4, r2
 8001cfa:	ae20      	add	r6, sp, #128	; 0x80
 8001cfc:	eb03 0987 	add.w	r9, r3, r7, lsl #2
 8001d00:	2500      	movs	r5, #0
 8001d02:	4545      	cmp	r5, r8
 8001d04:	dd18      	ble.n	8001d38 <__kernel_rem_pio2+0x90>
 8001d06:	9b08      	ldr	r3, [sp, #32]
 8001d08:	f8dd 8018 	ldr.w	r8, [sp, #24]
 8001d0c:	aa20      	add	r2, sp, #128	; 0x80
 8001d0e:	ed9f 8bae 	vldr	d8, [pc, #696]	; 8001fc8 <__kernel_rem_pio2+0x320>
 8001d12:	eb02 05c3 	add.w	r5, r2, r3, lsl #3
 8001d16:	f1c3 0301 	rsb	r3, r3, #1
 8001d1a:	f50d 7be0 	add.w	fp, sp, #448	; 0x1c0
 8001d1e:	9307      	str	r3, [sp, #28]
 8001d20:	9b07      	ldr	r3, [sp, #28]
 8001d22:	9a04      	ldr	r2, [sp, #16]
 8001d24:	4443      	add	r3, r8
 8001d26:	429a      	cmp	r2, r3
 8001d28:	db2f      	blt.n	8001d8a <__kernel_rem_pio2+0xe2>
 8001d2a:	ed8d 8b02 	vstr	d8, [sp, #8]
 8001d2e:	f8dd 9024 	ldr.w	r9, [sp, #36]	; 0x24
 8001d32:	462f      	mov	r7, r5
 8001d34:	2600      	movs	r6, #0
 8001d36:	e01b      	b.n	8001d70 <__kernel_rem_pio2+0xc8>
 8001d38:	42ef      	cmn	r7, r5
 8001d3a:	d407      	bmi.n	8001d4c <__kernel_rem_pio2+0xa4>
 8001d3c:	f859 0025 	ldr.w	r0, [r9, r5, lsl #2]
 8001d40:	f7fe fb94 	bl	800046c <__aeabi_i2d>
 8001d44:	e8e6 0102 	strd	r0, r1, [r6], #8
 8001d48:	3501      	adds	r5, #1
 8001d4a:	e7da      	b.n	8001d02 <__kernel_rem_pio2+0x5a>
 8001d4c:	ec51 0b18 	vmov	r0, r1, d8
 8001d50:	e7f8      	b.n	8001d44 <__kernel_rem_pio2+0x9c>
 8001d52:	e9d7 2300 	ldrd	r2, r3, [r7]
 8001d56:	e8f9 0102 	ldrd	r0, r1, [r9], #8
 8001d5a:	f7fe fbf1 	bl	8000540 <__aeabi_dmul>
 8001d5e:	4602      	mov	r2, r0
 8001d60:	460b      	mov	r3, r1
 8001d62:	e9dd 0102 	ldrd	r0, r1, [sp, #8]
 8001d66:	f7fe fa35 	bl	80001d4 <__adddf3>
 8001d6a:	e9cd 0102 	strd	r0, r1, [sp, #8]
 8001d6e:	3601      	adds	r6, #1
 8001d70:	9b06      	ldr	r3, [sp, #24]
 8001d72:	429e      	cmp	r6, r3
 8001d74:	f1a7 0708 	sub.w	r7, r7, #8
 8001d78:	ddeb      	ble.n	8001d52 <__kernel_rem_pio2+0xaa>
 8001d7a:	ed9d 7b02 	vldr	d7, [sp, #8]
 8001d7e:	3508      	adds	r5, #8
 8001d80:	ecab 7b02 	vstmia	fp!, {d7}
 8001d84:	f108 0801 	add.w	r8, r8, #1
 8001d88:	e7ca      	b.n	8001d20 <__kernel_rem_pio2+0x78>
 8001d8a:	9b04      	ldr	r3, [sp, #16]
 8001d8c:	aa0c      	add	r2, sp, #48	; 0x30
 8001d8e:	eb02 0383 	add.w	r3, r2, r3, lsl #2
 8001d92:	930b      	str	r3, [sp, #44]	; 0x2c
 8001d94:	9ba5      	ldr	r3, [sp, #660]	; 0x294
 8001d96:	eb03 0384 	add.w	r3, r3, r4, lsl #2
 8001d9a:	9c04      	ldr	r4, [sp, #16]
 8001d9c:	930a      	str	r3, [sp, #40]	; 0x28
 8001d9e:	ab98      	add	r3, sp, #608	; 0x260
 8001da0:	eb03 03c4 	add.w	r3, r3, r4, lsl #3
 8001da4:	e953 6728 	ldrd	r6, r7, [r3, #-160]	; 0xa0
 8001da8:	f10d 0b30 	add.w	fp, sp, #48	; 0x30
 8001dac:	f8cd b008 	str.w	fp, [sp, #8]
 8001db0:	4625      	mov	r5, r4
 8001db2:	2d00      	cmp	r5, #0
 8001db4:	dc78      	bgt.n	8001ea8 <__kernel_rem_pio2+0x200>
 8001db6:	ec47 6b10 	vmov	d0, r6, r7
 8001dba:	4650      	mov	r0, sl
 8001dbc:	f000 fbfc 	bl	80025b8 <scalbn>
 8001dc0:	ec57 6b10 	vmov	r6, r7, d0
 8001dc4:	2200      	movs	r2, #0
 8001dc6:	f04f 537f 	mov.w	r3, #1069547520	; 0x3fc00000
 8001dca:	ee10 0a10 	vmov	r0, s0
 8001dce:	4639      	mov	r1, r7
 8001dd0:	f7fe fbb6 	bl	8000540 <__aeabi_dmul>
 8001dd4:	ec41 0b10 	vmov	d0, r0, r1
 8001dd8:	f000 fb6e 	bl	80024b8 <floor>
 8001ddc:	4b7f      	ldr	r3, [pc, #508]	; (8001fdc <__kernel_rem_pio2+0x334>)
 8001dde:	ec51 0b10 	vmov	r0, r1, d0
 8001de2:	2200      	movs	r2, #0
 8001de4:	f7fe fbac 	bl	8000540 <__aeabi_dmul>
 8001de8:	4602      	mov	r2, r0
 8001dea:	460b      	mov	r3, r1
 8001dec:	4630      	mov	r0, r6
 8001dee:	4639      	mov	r1, r7
 8001df0:	f7fe f9ee 	bl	80001d0 <__aeabi_dsub>
 8001df4:	460f      	mov	r7, r1
 8001df6:	4606      	mov	r6, r0
 8001df8:	f7fe fe3c 	bl	8000a74 <__aeabi_d2iz>
 8001dfc:	9007      	str	r0, [sp, #28]
 8001dfe:	f7fe fb35 	bl	800046c <__aeabi_i2d>
 8001e02:	4602      	mov	r2, r0
 8001e04:	460b      	mov	r3, r1
 8001e06:	4630      	mov	r0, r6
 8001e08:	4639      	mov	r1, r7
 8001e0a:	f7fe f9e1 	bl	80001d0 <__aeabi_dsub>
 8001e0e:	f1ba 0f00 	cmp.w	sl, #0
 8001e12:	4606      	mov	r6, r0
 8001e14:	460f      	mov	r7, r1
 8001e16:	dd70      	ble.n	8001efa <__kernel_rem_pio2+0x252>
 8001e18:	1e62      	subs	r2, r4, #1
 8001e1a:	ab0c      	add	r3, sp, #48	; 0x30
 8001e1c:	9d07      	ldr	r5, [sp, #28]
 8001e1e:	f853 0022 	ldr.w	r0, [r3, r2, lsl #2]
 8001e22:	f1ca 0118 	rsb	r1, sl, #24
 8001e26:	fa40 f301 	asr.w	r3, r0, r1
 8001e2a:	441d      	add	r5, r3
 8001e2c:	408b      	lsls	r3, r1
 8001e2e:	1ac0      	subs	r0, r0, r3
 8001e30:	ab0c      	add	r3, sp, #48	; 0x30
 8001e32:	9507      	str	r5, [sp, #28]
 8001e34:	f843 0022 	str.w	r0, [r3, r2, lsl #2]
 8001e38:	f1ca 0317 	rsb	r3, sl, #23
 8001e3c:	fa40 f303 	asr.w	r3, r0, r3
 8001e40:	9302      	str	r3, [sp, #8]
 8001e42:	9b02      	ldr	r3, [sp, #8]
 8001e44:	2b00      	cmp	r3, #0
 8001e46:	dd66      	ble.n	8001f16 <__kernel_rem_pio2+0x26e>
 8001e48:	9b07      	ldr	r3, [sp, #28]
 8001e4a:	2200      	movs	r2, #0
 8001e4c:	3301      	adds	r3, #1
 8001e4e:	9307      	str	r3, [sp, #28]
 8001e50:	4615      	mov	r5, r2
 8001e52:	f06f 417f 	mvn.w	r1, #4278190080	; 0xff000000
 8001e56:	4294      	cmp	r4, r2
 8001e58:	f300 8099 	bgt.w	8001f8e <__kernel_rem_pio2+0x2e6>
 8001e5c:	f1ba 0f00 	cmp.w	sl, #0
 8001e60:	dd07      	ble.n	8001e72 <__kernel_rem_pio2+0x1ca>
 8001e62:	f1ba 0f01 	cmp.w	sl, #1
 8001e66:	f000 80a5 	beq.w	8001fb4 <__kernel_rem_pio2+0x30c>
 8001e6a:	f1ba 0f02 	cmp.w	sl, #2
 8001e6e:	f000 80c1 	beq.w	8001ff4 <__kernel_rem_pio2+0x34c>
 8001e72:	9b02      	ldr	r3, [sp, #8]
 8001e74:	2b02      	cmp	r3, #2
 8001e76:	d14e      	bne.n	8001f16 <__kernel_rem_pio2+0x26e>
 8001e78:	4632      	mov	r2, r6
 8001e7a:	463b      	mov	r3, r7
 8001e7c:	4958      	ldr	r1, [pc, #352]	; (8001fe0 <__kernel_rem_pio2+0x338>)
 8001e7e:	2000      	movs	r0, #0
 8001e80:	f7fe f9a6 	bl	80001d0 <__aeabi_dsub>
 8001e84:	4606      	mov	r6, r0
 8001e86:	460f      	mov	r7, r1
 8001e88:	2d00      	cmp	r5, #0
 8001e8a:	d044      	beq.n	8001f16 <__kernel_rem_pio2+0x26e>
 8001e8c:	4650      	mov	r0, sl
 8001e8e:	ed9f 0b50 	vldr	d0, [pc, #320]	; 8001fd0 <__kernel_rem_pio2+0x328>
 8001e92:	f000 fb91 	bl	80025b8 <scalbn>
 8001e96:	4630      	mov	r0, r6
 8001e98:	4639      	mov	r1, r7
 8001e9a:	ec53 2b10 	vmov	r2, r3, d0
 8001e9e:	f7fe f997 	bl	80001d0 <__aeabi_dsub>
 8001ea2:	4606      	mov	r6, r0
 8001ea4:	460f      	mov	r7, r1
 8001ea6:	e036      	b.n	8001f16 <__kernel_rem_pio2+0x26e>
 8001ea8:	4b4e      	ldr	r3, [pc, #312]	; (8001fe4 <__kernel_rem_pio2+0x33c>)
 8001eaa:	2200      	movs	r2, #0
 8001eac:	4630      	mov	r0, r6
 8001eae:	4639      	mov	r1, r7
 8001eb0:	f7fe fb46 	bl	8000540 <__aeabi_dmul>
 8001eb4:	f7fe fdde 	bl	8000a74 <__aeabi_d2iz>
 8001eb8:	f7fe fad8 	bl	800046c <__aeabi_i2d>
 8001ebc:	4b4a      	ldr	r3, [pc, #296]	; (8001fe8 <__kernel_rem_pio2+0x340>)
 8001ebe:	2200      	movs	r2, #0
 8001ec0:	4680      	mov	r8, r0
 8001ec2:	4689      	mov	r9, r1
 8001ec4:	f7fe fb3c 	bl	8000540 <__aeabi_dmul>
 8001ec8:	4602      	mov	r2, r0
 8001eca:	460b      	mov	r3, r1
 8001ecc:	4630      	mov	r0, r6
 8001ece:	4639      	mov	r1, r7
 8001ed0:	f7fe f97e 	bl	80001d0 <__aeabi_dsub>
 8001ed4:	f7fe fdce 	bl	8000a74 <__aeabi_d2iz>
 8001ed8:	9b02      	ldr	r3, [sp, #8]
 8001eda:	f843 0b04 	str.w	r0, [r3], #4
 8001ede:	3d01      	subs	r5, #1
 8001ee0:	9302      	str	r3, [sp, #8]
 8001ee2:	ab70      	add	r3, sp, #448	; 0x1c0
 8001ee4:	eb03 03c5 	add.w	r3, r3, r5, lsl #3
 8001ee8:	e9d3 2300 	ldrd	r2, r3, [r3]
 8001eec:	4640      	mov	r0, r8
 8001eee:	4649      	mov	r1, r9
 8001ef0:	f7fe f970 	bl	80001d4 <__adddf3>
 8001ef4:	4606      	mov	r6, r0
 8001ef6:	460f      	mov	r7, r1
 8001ef8:	e75b      	b.n	8001db2 <__kernel_rem_pio2+0x10a>
 8001efa:	d105      	bne.n	8001f08 <__kernel_rem_pio2+0x260>
 8001efc:	1e63      	subs	r3, r4, #1
 8001efe:	aa0c      	add	r2, sp, #48	; 0x30
 8001f00:	f852 0023 	ldr.w	r0, [r2, r3, lsl #2]
 8001f04:	15c3      	asrs	r3, r0, #23
 8001f06:	e79b      	b.n	8001e40 <__kernel_rem_pio2+0x198>
 8001f08:	4b38      	ldr	r3, [pc, #224]	; (8001fec <__kernel_rem_pio2+0x344>)
 8001f0a:	2200      	movs	r2, #0
 8001f0c:	f7fe fd9e 	bl	8000a4c <__aeabi_dcmpge>
 8001f10:	2800      	cmp	r0, #0
 8001f12:	d139      	bne.n	8001f88 <__kernel_rem_pio2+0x2e0>
 8001f14:	9002      	str	r0, [sp, #8]
 8001f16:	2200      	movs	r2, #0
 8001f18:	2300      	movs	r3, #0
 8001f1a:	4630      	mov	r0, r6
 8001f1c:	4639      	mov	r1, r7
 8001f1e:	f7fe fd77 	bl	8000a10 <__aeabi_dcmpeq>
 8001f22:	2800      	cmp	r0, #0
 8001f24:	f000 80b4 	beq.w	8002090 <__kernel_rem_pio2+0x3e8>
 8001f28:	f104 3bff 	add.w	fp, r4, #4294967295
 8001f2c:	465b      	mov	r3, fp
 8001f2e:	2200      	movs	r2, #0
 8001f30:	9904      	ldr	r1, [sp, #16]
 8001f32:	428b      	cmp	r3, r1
 8001f34:	da65      	bge.n	8002002 <__kernel_rem_pio2+0x35a>
 8001f36:	2a00      	cmp	r2, #0
 8001f38:	d07b      	beq.n	8002032 <__kernel_rem_pio2+0x38a>
 8001f3a:	ab0c      	add	r3, sp, #48	; 0x30
 8001f3c:	f1aa 0a18 	sub.w	sl, sl, #24
 8001f40:	f853 302b 	ldr.w	r3, [r3, fp, lsl #2]
 8001f44:	2b00      	cmp	r3, #0
 8001f46:	f000 80a0 	beq.w	800208a <__kernel_rem_pio2+0x3e2>
 8001f4a:	ed9f 0b21 	vldr	d0, [pc, #132]	; 8001fd0 <__kernel_rem_pio2+0x328>
 8001f4e:	4650      	mov	r0, sl
 8001f50:	f000 fb32 	bl	80025b8 <scalbn>
 8001f54:	4f23      	ldr	r7, [pc, #140]	; (8001fe4 <__kernel_rem_pio2+0x33c>)
 8001f56:	ec55 4b10 	vmov	r4, r5, d0
 8001f5a:	46d8      	mov	r8, fp
 8001f5c:	2600      	movs	r6, #0
 8001f5e:	f1b8 0f00 	cmp.w	r8, #0
 8001f62:	f280 80cf 	bge.w	8002104 <__kernel_rem_pio2+0x45c>
 8001f66:	ed9f 8b18 	vldr	d8, [pc, #96]	; 8001fc8 <__kernel_rem_pio2+0x320>
 8001f6a:	465f      	mov	r7, fp
 8001f6c:	f04f 0800 	mov.w	r8, #0
 8001f70:	2f00      	cmp	r7, #0
 8001f72:	f2c0 80fd 	blt.w	8002170 <__kernel_rem_pio2+0x4c8>
 8001f76:	ab70      	add	r3, sp, #448	; 0x1c0
 8001f78:	f8df a074 	ldr.w	sl, [pc, #116]	; 8001ff0 <__kernel_rem_pio2+0x348>
 8001f7c:	ec55 4b18 	vmov	r4, r5, d8
 8001f80:	eb03 09c7 	add.w	r9, r3, r7, lsl #3
 8001f84:	2600      	movs	r6, #0
 8001f86:	e0e5      	b.n	8002154 <__kernel_rem_pio2+0x4ac>
 8001f88:	2302      	movs	r3, #2
 8001f8a:	9302      	str	r3, [sp, #8]
 8001f8c:	e75c      	b.n	8001e48 <__kernel_rem_pio2+0x1a0>
 8001f8e:	f8db 3000 	ldr.w	r3, [fp]
 8001f92:	b955      	cbnz	r5, 8001faa <__kernel_rem_pio2+0x302>
 8001f94:	b123      	cbz	r3, 8001fa0 <__kernel_rem_pio2+0x2f8>
 8001f96:	f1c3 7380 	rsb	r3, r3, #16777216	; 0x1000000
 8001f9a:	f8cb 3000 	str.w	r3, [fp]
 8001f9e:	2301      	movs	r3, #1
 8001fa0:	3201      	adds	r2, #1
 8001fa2:	f10b 0b04 	add.w	fp, fp, #4
 8001fa6:	461d      	mov	r5, r3
 8001fa8:	e755      	b.n	8001e56 <__kernel_rem_pio2+0x1ae>
 8001faa:	1acb      	subs	r3, r1, r3
 8001fac:	f8cb 3000 	str.w	r3, [fp]
 8001fb0:	462b      	mov	r3, r5
 8001fb2:	e7f5      	b.n	8001fa0 <__kernel_rem_pio2+0x2f8>
 8001fb4:	1e62      	subs	r2, r4, #1
 8001fb6:	ab0c      	add	r3, sp, #48	; 0x30
 8001fb8:	f853 3022 	ldr.w	r3, [r3, r2, lsl #2]
 8001fbc:	f3c3 0316 	ubfx	r3, r3, #0, #23
 8001fc0:	a90c      	add	r1, sp, #48	; 0x30
 8001fc2:	f841 3022 	str.w	r3, [r1, r2, lsl #2]
 8001fc6:	e754      	b.n	8001e72 <__kernel_rem_pio2+0x1ca>
	...
 8001fd4:	3ff00000 	.word	0x3ff00000
 8001fd8:	080028a8 	.word	0x080028a8
 8001fdc:	40200000 	.word	0x40200000
 8001fe0:	3ff00000 	.word	0x3ff00000
 8001fe4:	3e700000 	.word	0x3e700000
 8001fe8:	41700000 	.word	0x41700000
 8001fec:	3fe00000 	.word	0x3fe00000
 8001ff0:	08002868 	.word	0x08002868
 8001ff4:	1e62      	subs	r2, r4, #1
 8001ff6:	ab0c      	add	r3, sp, #48	; 0x30
 8001ff8:	f853 3022 	ldr.w	r3, [r3, r2, lsl #2]
 8001ffc:	f3c3 0315 	ubfx	r3, r3, #0, #22
 8002000:	e7de      	b.n	8001fc0 <__kernel_rem_pio2+0x318>
 8002002:	a90c      	add	r1, sp, #48	; 0x30
 8002004:	f851 1023 	ldr.w	r1, [r1, r3, lsl #2]
 8002008:	3b01      	subs	r3, #1
 800200a:	430a      	orrs	r2, r1
 800200c:	e790      	b.n	8001f30 <__kernel_rem_pio2+0x288>
 800200e:	3301      	adds	r3, #1
 8002010:	f852 1d04 	ldr.w	r1, [r2, #-4]!
 8002014:	2900      	cmp	r1, #0
 8002016:	d0fa      	beq.n	800200e <__kernel_rem_pio2+0x366>
 8002018:	9a08      	ldr	r2, [sp, #32]
 800201a:	18e3      	adds	r3, r4, r3
 800201c:	18a6      	adds	r6, r4, r2
 800201e:	aa20      	add	r2, sp, #128	; 0x80
 8002020:	1c65      	adds	r5, r4, #1
 8002022:	eb02 06c6 	add.w	r6, r2, r6, lsl #3
 8002026:	9302      	str	r3, [sp, #8]
 8002028:	9b02      	ldr	r3, [sp, #8]
 800202a:	42ab      	cmp	r3, r5
 800202c:	da04      	bge.n	8002038 <__kernel_rem_pio2+0x390>
 800202e:	461c      	mov	r4, r3
 8002030:	e6b5      	b.n	8001d9e <__kernel_rem_pio2+0xf6>
 8002032:	9a0b      	ldr	r2, [sp, #44]	; 0x2c
 8002034:	2301      	movs	r3, #1
 8002036:	e7eb      	b.n	8002010 <__kernel_rem_pio2+0x368>
 8002038:	9b0a      	ldr	r3, [sp, #40]	; 0x28
 800203a:	f853 0025 	ldr.w	r0, [r3, r5, lsl #2]
 800203e:	f7fe fa15 	bl	800046c <__aeabi_i2d>
 8002042:	e8e6 0102 	strd	r0, r1, [r6], #8
 8002046:	9b09      	ldr	r3, [sp, #36]	; 0x24
 8002048:	46b3      	mov	fp, r6
 800204a:	461c      	mov	r4, r3
 800204c:	2700      	movs	r7, #0
 800204e:	f04f 0800 	mov.w	r8, #0
 8002052:	f04f 0900 	mov.w	r9, #0
 8002056:	9b06      	ldr	r3, [sp, #24]
 8002058:	429f      	cmp	r7, r3
 800205a:	dd06      	ble.n	800206a <__kernel_rem_pio2+0x3c2>
 800205c:	ab70      	add	r3, sp, #448	; 0x1c0
 800205e:	eb03 03c5 	add.w	r3, r3, r5, lsl #3
 8002062:	e9c3 8900 	strd	r8, r9, [r3]
 8002066:	3501      	adds	r5, #1
 8002068:	e7de      	b.n	8002028 <__kernel_rem_pio2+0x380>
 800206a:	e97b 2302 	ldrd	r2, r3, [fp, #-8]!
 800206e:	e8f4 0102 	ldrd	r0, r1, [r4], #8
 8002072:	f7fe fa65 	bl	8000540 <__aeabi_dmul>
 8002076:	4602      	mov	r2, r0
 8002078:	460b      	mov	r3, r1
 800207a:	4640      	mov	r0, r8
 800207c:	4649      	mov	r1, r9
 800207e:	f7fe f8a9 	bl	80001d4 <__adddf3>
 8002082:	3701      	adds	r7, #1
 8002084:	4680      	mov	r8, r0
 8002086:	4689      	mov	r9, r1
 8002088:	e7e5      	b.n	8002056 <__kernel_rem_pio2+0x3ae>
 800208a:	f10b 3bff 	add.w	fp, fp, #4294967295
 800208e:	e754      	b.n	8001f3a <__kernel_rem_pio2+0x292>
 8002090:	ec47 6b10 	vmov	d0, r6, r7
 8002094:	f1ca 0000 	rsb	r0, sl, #0
 8002098:	f000 fa8e 	bl	80025b8 <scalbn>
 800209c:	ec57 6b10 	vmov	r6, r7, d0
 80020a0:	4b9f      	ldr	r3, [pc, #636]	; (8002320 <__kernel_rem_pio2+0x678>)
 80020a2:	ee10 0a10 	vmov	r0, s0
 80020a6:	2200      	movs	r2, #0
 80020a8:	4639      	mov	r1, r7
 80020aa:	f7fe fccf 	bl	8000a4c <__aeabi_dcmpge>
 80020ae:	b300      	cbz	r0, 80020f2 <__kernel_rem_pio2+0x44a>
 80020b0:	4b9c      	ldr	r3, [pc, #624]	; (8002324 <__kernel_rem_pio2+0x67c>)
 80020b2:	2200      	movs	r2, #0
 80020b4:	4630      	mov	r0, r6
 80020b6:	4639      	mov	r1, r7
 80020b8:	f7fe fa42 	bl	8000540 <__aeabi_dmul>
 80020bc:	f7fe fcda 	bl	8000a74 <__aeabi_d2iz>
 80020c0:	4605      	mov	r5, r0
 80020c2:	f7fe f9d3 	bl	800046c <__aeabi_i2d>
 80020c6:	4b96      	ldr	r3, [pc, #600]	; (8002320 <__kernel_rem_pio2+0x678>)
 80020c8:	2200      	movs	r2, #0
 80020ca:	f7fe fa39 	bl	8000540 <__aeabi_dmul>
 80020ce:	460b      	mov	r3, r1
 80020d0:	4602      	mov	r2, r0
 80020d2:	4639      	mov	r1, r7
 80020d4:	4630      	mov	r0, r6
 80020d6:	f7fe f87b 	bl	80001d0 <__aeabi_dsub>
 80020da:	f7fe fccb 	bl	8000a74 <__aeabi_d2iz>
 80020de:	f104 0b01 	add.w	fp, r4, #1
 80020e2:	ab0c      	add	r3, sp, #48	; 0x30
 80020e4:	f10a 0a18 	add.w	sl, sl, #24
 80020e8:	f843 0024 	str.w	r0, [r3, r4, lsl #2]
 80020ec:	f843 502b 	str.w	r5, [r3, fp, lsl #2]
 80020f0:	e72b      	b.n	8001f4a <__kernel_rem_pio2+0x2a2>
 80020f2:	4630      	mov	r0, r6
 80020f4:	4639      	mov	r1, r7
 80020f6:	f7fe fcbd 	bl	8000a74 <__aeabi_d2iz>
 80020fa:	ab0c      	add	r3, sp, #48	; 0x30
 80020fc:	46a3      	mov	fp, r4
 80020fe:	f843 0024 	str.w	r0, [r3, r4, lsl #2]
 8002102:	e722      	b.n	8001f4a <__kernel_rem_pio2+0x2a2>
 8002104:	ab70      	add	r3, sp, #448	; 0x1c0
 8002106:	eb03 09c8 	add.w	r9, r3, r8, lsl #3
 800210a:	ab0c      	add	r3, sp, #48	; 0x30
 800210c:	f853 0028 	ldr.w	r0, [r3, r8, lsl #2]
 8002110:	f7fe f9ac 	bl	800046c <__aeabi_i2d>
 8002114:	4622      	mov	r2, r4
 8002116:	462b      	mov	r3, r5
 8002118:	f7fe fa12 	bl	8000540 <__aeabi_dmul>
 800211c:	4632      	mov	r2, r6
 800211e:	e9c9 0100 	strd	r0, r1, [r9]
 8002122:	463b      	mov	r3, r7
 8002124:	4620      	mov	r0, r4
 8002126:	4629      	mov	r1, r5
 8002128:	f7fe fa0a 	bl	8000540 <__aeabi_dmul>
 800212c:	f108 38ff 	add.w	r8, r8, #4294967295
 8002130:	4604      	mov	r4, r0
 8002132:	460d      	mov	r5, r1
 8002134:	e713      	b.n	8001f5e <__kernel_rem_pio2+0x2b6>
 8002136:	e8f9 2302 	ldrd	r2, r3, [r9], #8
 800213a:	e8fa 0102 	ldrd	r0, r1, [sl], #8
 800213e:	f7fe f9ff 	bl	8000540 <__aeabi_dmul>
 8002142:	4602      	mov	r2, r0
 8002144:	460b      	mov	r3, r1
 8002146:	4620      	mov	r0, r4
 8002148:	4629      	mov	r1, r5
 800214a:	f7fe f843 	bl	80001d4 <__adddf3>
 800214e:	3601      	adds	r6, #1
 8002150:	4604      	mov	r4, r0
 8002152:	460d      	mov	r5, r1
 8002154:	9b04      	ldr	r3, [sp, #16]
 8002156:	429e      	cmp	r6, r3
 8002158:	dc01      	bgt.n	800215e <__kernel_rem_pio2+0x4b6>
 800215a:	45b0      	cmp	r8, r6
 800215c:	daeb      	bge.n	8002136 <__kernel_rem_pio2+0x48e>
 800215e:	ab48      	add	r3, sp, #288	; 0x120
 8002160:	eb03 03c8 	add.w	r3, r3, r8, lsl #3
 8002164:	e9c3 4500 	strd	r4, r5, [r3]
 8002168:	3f01      	subs	r7, #1
 800216a:	f108 0801 	add.w	r8, r8, #1
 800216e:	e6ff      	b.n	8001f70 <__kernel_rem_pio2+0x2c8>
 8002170:	9ba4      	ldr	r3, [sp, #656]	; 0x290
 8002172:	2b02      	cmp	r3, #2
 8002174:	dc0b      	bgt.n	800218e <__kernel_rem_pio2+0x4e6>
 8002176:	2b00      	cmp	r3, #0
 8002178:	dc6e      	bgt.n	8002258 <__kernel_rem_pio2+0x5b0>
 800217a:	d045      	beq.n	8002208 <__kernel_rem_pio2+0x560>
 800217c:	9b07      	ldr	r3, [sp, #28]
 800217e:	f003 0007 	and.w	r0, r3, #7
 8002182:	f50d 7d19 	add.w	sp, sp, #612	; 0x264
 8002186:	ecbd 8b02 	vpop	{d8}
 800218a:	e8bd 8ff0 	ldmia.w	sp!, {r4, r5, r6, r7, r8, r9, sl, fp, pc}
 800218e:	9ba4      	ldr	r3, [sp, #656]	; 0x290
 8002190:	2b03      	cmp	r3, #3
 8002192:	d1f3      	bne.n	800217c <__kernel_rem_pio2+0x4d4>
 8002194:	ab48      	add	r3, sp, #288	; 0x120
 8002196:	eb03 0acb 	add.w	sl, r3, fp, lsl #3
 800219a:	46d0      	mov	r8, sl
 800219c:	46d9      	mov	r9, fp
 800219e:	f1b9 0f00 	cmp.w	r9, #0
 80021a2:	f1a8 0808 	sub.w	r8, r8, #8
 80021a6:	dc64      	bgt.n	8002272 <__kernel_rem_pio2+0x5ca>
 80021a8:	465c      	mov	r4, fp
 80021aa:	2c01      	cmp	r4, #1
 80021ac:	f1aa 0a08 	sub.w	sl, sl, #8
 80021b0:	dc7e      	bgt.n	80022b0 <__kernel_rem_pio2+0x608>
 80021b2:	2000      	movs	r0, #0
 80021b4:	2100      	movs	r1, #0
 80021b6:	f1bb 0f01 	cmp.w	fp, #1
 80021ba:	f300 8097 	bgt.w	80022ec <__kernel_rem_pio2+0x644>
 80021be:	9b02      	ldr	r3, [sp, #8]
 80021c0:	e9dd 5648 	ldrd	r5, r6, [sp, #288]	; 0x120
 80021c4:	e9dd 784a 	ldrd	r7, r8, [sp, #296]	; 0x128
 80021c8:	2b00      	cmp	r3, #0
 80021ca:	f040 8099 	bne.w	8002300 <__kernel_rem_pio2+0x658>
 80021ce:	9b01      	ldr	r3, [sp, #4]
 80021d0:	e9c3 5600 	strd	r5, r6, [r3]
 80021d4:	e9c3 7802 	strd	r7, r8, [r3, #8]
 80021d8:	e9c3 0104 	strd	r0, r1, [r3, #16]
 80021dc:	e7ce      	b.n	800217c <__kernel_rem_pio2+0x4d4>
 80021de:	ab48      	add	r3, sp, #288	; 0x120
 80021e0:	eb03 03cb 	add.w	r3, r3, fp, lsl #3
 80021e4:	e9d3 2300 	ldrd	r2, r3, [r3]
 80021e8:	f7fd fff4 	bl	80001d4 <__adddf3>
 80021ec:	f10b 3bff 	add.w	fp, fp, #4294967295
 80021f0:	f1bb 0f00 	cmp.w	fp, #0
 80021f4:	daf3      	bge.n	80021de <__kernel_rem_pio2+0x536>
 80021f6:	9b02      	ldr	r3, [sp, #8]
 80021f8:	b113      	cbz	r3, 8002200 <__kernel_rem_pio2+0x558>
 80021fa:	f101 4300 	add.w	r3, r1, #2147483648	; 0x80000000
 80021fe:	4619      	mov	r1, r3
 8002200:	9b01      	ldr	r3, [sp, #4]
 8002202:	e9c3 0100 	strd	r0, r1, [r3]
 8002206:	e7b9      	b.n	800217c <__kernel_rem_pio2+0x4d4>
 8002208:	2000      	movs	r0, #0
 800220a:	2100      	movs	r1, #0
 800220c:	e7f0      	b.n	80021f0 <__kernel_rem_pio2+0x548>
 800220e:	ab48      	add	r3, sp, #288	; 0x120
 8002210:	eb03 03c4 	add.w	r3, r3, r4, lsl #3
 8002214:	e9d3 2300 	ldrd	r2, r3, [r3]
 8002218:	f7fd ffdc 	bl	80001d4 <__adddf3>
 800221c:	3c01      	subs	r4, #1
 800221e:	2c00      	cmp	r4, #0
 8002220:	daf5      	bge.n	800220e <__kernel_rem_pio2+0x566>
 8002222:	9b02      	ldr	r3, [sp, #8]
 8002224:	b1e3      	cbz	r3, 8002260 <__kernel_rem_pio2+0x5b8>
 8002226:	4602      	mov	r2, r0
 8002228:	f101 4300 	add.w	r3, r1, #2147483648	; 0x80000000
 800222c:	9c01      	ldr	r4, [sp, #4]
 800222e:	e9c4 2300 	strd	r2, r3, [r4]
 8002232:	4602      	mov	r2, r0
 8002234:	460b      	mov	r3, r1
 8002236:	e9dd 0148 	ldrd	r0, r1, [sp, #288]	; 0x120
 800223a:	f7fd ffc9 	bl	80001d0 <__aeabi_dsub>
 800223e:	ad4a      	add	r5, sp, #296	; 0x128
 8002240:	2401      	movs	r4, #1
 8002242:	45a3      	cmp	fp, r4
 8002244:	da0f      	bge.n	8002266 <__kernel_rem_pio2+0x5be>
 8002246:	9b02      	ldr	r3, [sp, #8]
 8002248:	b113      	cbz	r3, 8002250 <__kernel_rem_pio2+0x5a8>
 800224a:	f101 4300 	add.w	r3, r1, #2147483648	; 0x80000000
 800224e:	4619      	mov	r1, r3
 8002250:	9b01      	ldr	r3, [sp, #4]
 8002252:	e9c3 0102 	strd	r0, r1, [r3, #8]
 8002256:	e791      	b.n	800217c <__kernel_rem_pio2+0x4d4>
 8002258:	465c      	mov	r4, fp
 800225a:	2000      	movs	r0, #0
 800225c:	2100      	movs	r1, #0
 800225e:	e7de      	b.n	800221e <__kernel_rem_pio2+0x576>
 8002260:	4602      	mov	r2, r0
 8002262:	460b      	mov	r3, r1
 8002264:	e7e2      	b.n	800222c <__kernel_rem_pio2+0x584>
 8002266:	e8f5 2302 	ldrd	r2, r3, [r5], #8
 800226a:	f7fd ffb3 	bl	80001d4 <__adddf3>
 800226e:	3401      	adds	r4, #1
 8002270:	e7e7      	b.n	8002242 <__kernel_rem_pio2+0x59a>
 8002272:	e9d8 4500 	ldrd	r4, r5, [r8]
 8002276:	e9d8 6702 	ldrd	r6, r7, [r8, #8]
 800227a:	4620      	mov	r0, r4
 800227c:	4632      	mov	r2, r6
 800227e:	463b      	mov	r3, r7
 8002280:	4629      	mov	r1, r5
 8002282:	f7fd ffa7 	bl	80001d4 <__adddf3>
 8002286:	e9cd 0104 	strd	r0, r1, [sp, #16]
 800228a:	4602      	mov	r2, r0
 800228c:	460b      	mov	r3, r1
 800228e:	4620      	mov	r0, r4
 8002290:	4629      	mov	r1, r5
 8002292:	f7fd ff9d 	bl	80001d0 <__aeabi_dsub>
 8002296:	4632      	mov	r2, r6
 8002298:	463b      	mov	r3, r7
 800229a:	f7fd ff9b 	bl	80001d4 <__adddf3>
 800229e:	ed9d 7b04 	vldr	d7, [sp, #16]
 80022a2:	e9c8 0102 	strd	r0, r1, [r8, #8]
 80022a6:	ed88 7b00 	vstr	d7, [r8]
 80022aa:	f109 39ff 	add.w	r9, r9, #4294967295
 80022ae:	e776      	b.n	800219e <__kernel_rem_pio2+0x4f6>
 80022b0:	e9da 8900 	ldrd	r8, r9, [sl]
 80022b4:	e9da 6702 	ldrd	r6, r7, [sl, #8]
 80022b8:	4640      	mov	r0, r8
 80022ba:	4632      	mov	r2, r6
 80022bc:	463b      	mov	r3, r7
 80022be:	4649      	mov	r1, r9
 80022c0:	f7fd ff88 	bl	80001d4 <__adddf3>
 80022c4:	e9cd 0104 	strd	r0, r1, [sp, #16]
 80022c8:	4602      	mov	r2, r0
 80022ca:	460b      	mov	r3, r1
 80022cc:	4640      	mov	r0, r8
 80022ce:	4649      	mov	r1, r9
 80022d0:	f7fd ff7e 	bl	80001d0 <__aeabi_dsub>
 80022d4:	4632      	mov	r2, r6
 80022d6:	463b      	mov	r3, r7
 80022d8:	f7fd ff7c 	bl	80001d4 <__adddf3>
 80022dc:	ed9d 7b04 	vldr	d7, [sp, #16]
 80022e0:	e9ca 0102 	strd	r0, r1, [sl, #8]
 80022e4:	ed8a 7b00 	vstr	d7, [sl]
 80022e8:	3c01      	subs	r4, #1
 80022ea:	e75e      	b.n	80021aa <__kernel_rem_pio2+0x502>
 80022ec:	ab48      	add	r3, sp, #288	; 0x120
 80022ee:	eb03 03cb 	add.w	r3, r3, fp, lsl #3
 80022f2:	e9d3 2300 	ldrd	r2, r3, [r3]
 80022f6:	f7fd ff6d 	bl	80001d4 <__adddf3>
 80022fa:	f10b 3bff 	add.w	fp, fp, #4294967295
 80022fe:	e75a      	b.n	80021b6 <__kernel_rem_pio2+0x50e>
 8002300:	9b01      	ldr	r3, [sp, #4]
 8002302:	9a01      	ldr	r2, [sp, #4]
 8002304:	601d      	str	r5, [r3, #0]
 8002306:	f106 4400 	add.w	r4, r6, #2147483648	; 0x80000000
 800230a:	605c      	str	r4, [r3, #4]
 800230c:	609f      	str	r7, [r3, #8]
 800230e:	f108 4300 	add.w	r3, r8, #2147483648	; 0x80000000
 8002312:	60d3      	str	r3, [r2, #12]
 8002314:	f101 4300 	add.w	r3, r1, #2147483648	; 0x80000000
 8002318:	6110      	str	r0, [r2, #16]
 800231a:	6153      	str	r3, [r2, #20]
 800231c:	e72e      	b.n	800217c <__kernel_rem_pio2+0x4d4>
 800231e:	bf00      	nop
 8002320:	41700000 	.word	0x41700000
 8002324:	3e700000 	.word	0x3e700000

08002328 <__kernel_sin>:
 8002328:	e92d 4ff0 	stmdb	sp!, {r4, r5, r6, r7, r8, r9, sl, fp, lr}
 800232c:	ed2d 8b04 	vpush	{d8-d9}
 8002330:	eeb0 8a41 	vmov.f32	s16, s2
 8002334:	eef0 8a61 	vmov.f32	s17, s3
 8002338:	ec55 4b10 	vmov	r4, r5, d0
 800233c:	b083      	sub	sp, #12
 800233e:	f025 4300 	bic.w	r3, r5, #2147483648	; 0x80000000
 8002342:	f1b3 5f79 	cmp.w	r3, #1044381696	; 0x3e400000
 8002346:	9001      	str	r0, [sp, #4]
 8002348:	da06      	bge.n	8002358 <__kernel_sin+0x30>
 800234a:	ee10 0a10 	vmov	r0, s0
 800234e:	4629      	mov	r1, r5
 8002350:	f7fe fb90 	bl	8000a74 <__aeabi_d2iz>
 8002354:	2800      	cmp	r0, #0
 8002356:	d051      	beq.n	80023fc <__kernel_sin+0xd4>
 8002358:	4622      	mov	r2, r4
 800235a:	462b      	mov	r3, r5
 800235c:	4620      	mov	r0, r4
 800235e:	4629      	mov	r1, r5
 8002360:	f7fe f8ee 	bl	8000540 <__aeabi_dmul>
 8002364:	4682      	mov	sl, r0
 8002366:	468b      	mov	fp, r1
 8002368:	4602      	mov	r2, r0
 800236a:	460b      	mov	r3, r1
 800236c:	4620      	mov	r0, r4
 800236e:	4629      	mov	r1, r5
 8002370:	f7fe f8e6 	bl	8000540 <__aeabi_dmul>
 8002374:	a341      	add	r3, pc, #260	; (adr r3, 800247c <__kernel_sin+0x154>)
 8002376:	e9d3 2300 	ldrd	r2, r3, [r3]
 800237a:	4680      	mov	r8, r0
 800237c:	4689      	mov	r9, r1
 800237e:	4650      	mov	r0, sl
 8002380:	4659      	mov	r1, fp
 8002382:	f7fe f8dd 	bl	8000540 <__aeabi_dmul>
 8002386:	a33f      	add	r3, pc, #252	; (adr r3, 8002484 <__kernel_sin+0x15c>)
 8002388:	e9d3 2300 	ldrd	r2, r3, [r3]
 800238c:	f7fd ff20 	bl	80001d0 <__aeabi_dsub>
 8002390:	4652      	mov	r2, sl
 8002392:	465b      	mov	r3, fp
 8002394:	f7fe f8d4 	bl	8000540 <__aeabi_dmul>
 8002398:	a33c      	add	r3, pc, #240	; (adr r3, 800248c <__kernel_sin+0x164>)
 800239a:	e9d3 2300 	ldrd	r2, r3, [r3]
 800239e:	f7fd ff19 	bl	80001d4 <__adddf3>
 80023a2:	4652      	mov	r2, sl
 80023a4:	465b      	mov	r3, fp
 80023a6:	f7fe f8cb 	bl	8000540 <__aeabi_dmul>
 80023aa:	a33a      	add	r3, pc, #232	; (adr r3, 8002494 <__kernel_sin+0x16c>)
 80023ac:	e9d3 2300 	ldrd	r2, r3, [r3]
 80023b0:	f7fd ff0e 	bl	80001d0 <__aeabi_dsub>
 80023b4:	4652      	mov	r2, sl
 80023b6:	465b      	mov	r3, fp
 80023b8:	f7fe f8c2 	bl	8000540 <__aeabi_dmul>
 80023bc:	a337      	add	r3, pc, #220	; (adr r3, 800249c <__kernel_sin+0x174>)
 80023be:	e9d3 2300 	ldrd	r2, r3, [r3]
 80023c2:	f7fd ff07 	bl	80001d4 <__adddf3>
 80023c6:	9b01      	ldr	r3, [sp, #4]
 80023c8:	4606      	mov	r6, r0
 80023ca:	460f      	mov	r7, r1
 80023cc:	b9eb      	cbnz	r3, 800240a <__kernel_sin+0xe2>
 80023ce:	4602      	mov	r2, r0
 80023d0:	460b      	mov	r3, r1
 80023d2:	4650      	mov	r0, sl
 80023d4:	4659      	mov	r1, fp
 80023d6:	f7fe f8b3 	bl	8000540 <__aeabi_dmul>
 80023da:	a325      	add	r3, pc, #148	; (adr r3, 8002470 <__kernel_sin+0x148>)
 80023dc:	e9d3 2300 	ldrd	r2, r3, [r3]
 80023e0:	f7fd fef6 	bl	80001d0 <__aeabi_dsub>
 80023e4:	4642      	mov	r2, r8
 80023e6:	464b      	mov	r3, r9
 80023e8:	f7fe f8aa 	bl	8000540 <__aeabi_dmul>
 80023ec:	4602      	mov	r2, r0
 80023ee:	460b      	mov	r3, r1
 80023f0:	4620      	mov	r0, r4
 80023f2:	4629      	mov	r1, r5
 80023f4:	f7fd feee 	bl	80001d4 <__adddf3>
 80023f8:	4604      	mov	r4, r0
 80023fa:	460d      	mov	r5, r1
 80023fc:	ec45 4b10 	vmov	d0, r4, r5
 8002400:	b003      	add	sp, #12
 8002402:	ecbd 8b04 	vpop	{d8-d9}
 8002406:	e8bd 8ff0 	ldmia.w	sp!, {r4, r5, r6, r7, r8, r9, sl, fp, pc}
 800240a:	4b1b      	ldr	r3, [pc, #108]	; (8002478 <__kernel_sin+0x150>)
 800240c:	ec51 0b18 	vmov	r0, r1, d8
 8002410:	2200      	movs	r2, #0
 8002412:	f7fe f895 	bl	8000540 <__aeabi_dmul>
 8002416:	4632      	mov	r2, r6
 8002418:	ec41 0b19 	vmov	d9, r0, r1
 800241c:	463b      	mov	r3, r7
 800241e:	4640      	mov	r0, r8
 8002420:	4649      	mov	r1, r9
 8002422:	f7fe f88d 	bl	8000540 <__aeabi_dmul>
 8002426:	4602      	mov	r2, r0
 8002428:	460b      	mov	r3, r1
 800242a:	ec51 0b19 	vmov	r0, r1, d9
 800242e:	f7fd fecf 	bl	80001d0 <__aeabi_dsub>
 8002432:	4652      	mov	r2, sl
 8002434:	465b      	mov	r3, fp
 8002436:	f7fe f883 	bl	8000540 <__aeabi_dmul>
 800243a:	ec53 2b18 	vmov	r2, r3, d8
 800243e:	f7fd fec7 	bl	80001d0 <__aeabi_dsub>
 8002442:	a30b      	add	r3, pc, #44	; (adr r3, 8002470 <__kernel_sin+0x148>)
 8002444:	e9d3 2300 	ldrd	r2, r3, [r3]
 8002448:	4606      	mov	r6, r0
 800244a:	460f      	mov	r7, r1
 800244c:	4640      	mov	r0, r8
 800244e:	4649      	mov	r1, r9
 8002450:	f7fe f876 	bl	8000540 <__aeabi_dmul>
 8002454:	4602      	mov	r2, r0
 8002456:	460b      	mov	r3, r1
 8002458:	4630      	mov	r0, r6
 800245a:	4639      	mov	r1, r7
 800245c:	f7fd feba 	bl	80001d4 <__adddf3>
 8002460:	4602      	mov	r2, r0
 8002462:	460b      	mov	r3, r1
 8002464:	4620      	mov	r0, r4
 8002466:	4629      	mov	r1, r5
 8002468:	f7fd feb2 	bl	80001d0 <__aeabi_dsub>
 800246c:	e7c4      	b.n	80023f8 <__kernel_sin+0xd0>
 800246e:	bf00      	nop
 8002470:	55555549 	.word	0x55555549
 8002474:	3fc55555 	.word	0x3fc55555
 8002478:	3fe00000 	.word	0x3fe00000
 800247c:	5acfd57c 	.word	0x5acfd57c
 8002480:	3de5d93a 	.word	0x3de5d93a
 8002484:	8a2b9ceb 	.word	0x8a2b9ceb
 8002488:	3e5ae5e6 	.word	0x3e5ae5e6
 800248c:	57b1fe7d 	.word	0x57b1fe7d
 8002490:	3ec71de3 	.word	0x3ec71de3
 8002494:	19c161d5 	.word	0x19c161d5
 8002498:	3f2a01a0 	.word	0x3f2a01a0
 800249c:	1110f8a6 	.word	0x1110f8a6
 80024a0:	3f811111 	.word	0x3f811111

080024a4 <fabs>:
 80024a4:	ec51 0b10 	vmov	r0, r1, d0
 80024a8:	ee10 2a10 	vmov	r2, s0
 80024ac:	f021 4300 	bic.w	r3, r1, #2147483648	; 0x80000000
 80024b0:	ec43 2b10 	vmov	d0, r2, r3
 80024b4:	4770      	bx	lr
	...

080024b8 <floor>:
 80024b8:	ec51 0b10 	vmov	r0, r1, d0
 80024bc:	e92d 41f0 	stmdb	sp!, {r4, r5, r6, r7, r8, lr}
 80024c0:	f3c1 570a 	ubfx	r7, r1, #20, #11
 80024c4:	f2a7 36ff 	subw	r6, r7, #1023	; 0x3ff
 80024c8:	2e13      	cmp	r6, #19
 80024ca:	ee10 5a10 	vmov	r5, s0
 80024ce:	ee10 8a10 	vmov	r8, s0
 80024d2:	460c      	mov	r4, r1
 80024d4:	dc32      	bgt.n	800253c <floor+0x84>
 80024d6:	2e00      	cmp	r6, #0
 80024d8:	da14      	bge.n	8002504 <floor+0x4c>
 80024da:	a333      	add	r3, pc, #204	; (adr r3, 80025a8 <floor+0xf0>)
 80024dc:	e9d3 2300 	ldrd	r2, r3, [r3]
 80024e0:	f7fd fe78 	bl	80001d4 <__adddf3>
 80024e4:	2200      	movs	r2, #0
 80024e6:	2300      	movs	r3, #0
 80024e8:	f7fe faba 	bl	8000a60 <__aeabi_dcmpgt>
 80024ec:	b138      	cbz	r0, 80024fe <floor+0x46>
 80024ee:	2c00      	cmp	r4, #0
 80024f0:	da57      	bge.n	80025a2 <floor+0xea>
 80024f2:	f024 4300 	bic.w	r3, r4, #2147483648	; 0x80000000
 80024f6:	431d      	orrs	r5, r3
 80024f8:	d001      	beq.n	80024fe <floor+0x46>
 80024fa:	4c2d      	ldr	r4, [pc, #180]	; (80025b0 <floor+0xf8>)
 80024fc:	2500      	movs	r5, #0
 80024fe:	4621      	mov	r1, r4
 8002500:	4628      	mov	r0, r5
 8002502:	e025      	b.n	8002550 <floor+0x98>
 8002504:	4f2b      	ldr	r7, [pc, #172]	; (80025b4 <floor+0xfc>)
 8002506:	4137      	asrs	r7, r6
 8002508:	ea01 0307 	and.w	r3, r1, r7
 800250c:	4303      	orrs	r3, r0
 800250e:	d01f      	beq.n	8002550 <floor+0x98>
 8002510:	a325      	add	r3, pc, #148	; (adr r3, 80025a8 <floor+0xf0>)
 8002512:	e9d3 2300 	ldrd	r2, r3, [r3]
 8002516:	f7fd fe5d 	bl	80001d4 <__adddf3>
 800251a:	2200      	movs	r2, #0
 800251c:	2300      	movs	r3, #0
 800251e:	f7fe fa9f 	bl	8000a60 <__aeabi_dcmpgt>
 8002522:	2800      	cmp	r0, #0
 8002524:	d0eb      	beq.n	80024fe <floor+0x46>
 8002526:	2c00      	cmp	r4, #0
 8002528:	bfbe      	ittt	lt
 800252a:	f44f 1380 	movlt.w	r3, #1048576	; 0x100000
 800252e:	fa43 f606 	asrlt.w	r6, r3, r6
 8002532:	19a4      	addlt	r4, r4, r6
 8002534:	ea24 0407 	bic.w	r4, r4, r7
 8002538:	2500      	movs	r5, #0
 800253a:	e7e0      	b.n	80024fe <floor+0x46>
 800253c:	2e33      	cmp	r6, #51	; 0x33
 800253e:	dd0b      	ble.n	8002558 <floor+0xa0>
 8002540:	f5b6 6f80 	cmp.w	r6, #1024	; 0x400
 8002544:	d104      	bne.n	8002550 <floor+0x98>
 8002546:	ee10 2a10 	vmov	r2, s0
 800254a:	460b      	mov	r3, r1
 800254c:	f7fd fe42 	bl	80001d4 <__adddf3>
 8002550:	ec41 0b10 	vmov	d0, r0, r1
 8002554:	e8bd 81f0 	ldmia.w	sp!, {r4, r5, r6, r7, r8, pc}
 8002558:	f2a7 4713 	subw	r7, r7, #1043	; 0x413
 800255c:	f04f 33ff 	mov.w	r3, #4294967295
 8002560:	fa23 f707 	lsr.w	r7, r3, r7
 8002564:	4207      	tst	r7, r0
 8002566:	d0f3      	beq.n	8002550 <floor+0x98>
 8002568:	a30f      	add	r3, pc, #60	; (adr r3, 80025a8 <floor+0xf0>)
 800256a:	e9d3 2300 	ldrd	r2, r3, [r3]
 800256e:	f7fd fe31 	bl	80001d4 <__adddf3>
 8002572:	2200      	movs	r2, #0
 8002574:	2300      	movs	r3, #0
 8002576:	f7fe fa73 	bl	8000a60 <__aeabi_dcmpgt>
 800257a:	2800      	cmp	r0, #0
 800257c:	d0bf      	beq.n	80024fe <floor+0x46>
 800257e:	2c00      	cmp	r4, #0
 8002580:	da02      	bge.n	8002588 <floor+0xd0>
 8002582:	2e14      	cmp	r6, #20
 8002584:	d103      	bne.n	800258e <floor+0xd6>
 8002586:	3401      	adds	r4, #1
 8002588:	ea25 0507 	bic.w	r5, r5, r7
 800258c:	e7b7      	b.n	80024fe <floor+0x46>
 800258e:	2301      	movs	r3, #1
 8002590:	f1c6 0634 	rsb	r6, r6, #52	; 0x34
 8002594:	fa03 f606 	lsl.w	r6, r3, r6
 8002598:	4435      	add	r5, r6
 800259a:	4545      	cmp	r5, r8
 800259c:	bf38      	it	cc
 800259e:	18e4      	addcc	r4, r4, r3
 80025a0:	e7f2      	b.n	8002588 <floor+0xd0>
 80025a2:	2500      	movs	r5, #0
 80025a4:	462c      	mov	r4, r5
 80025a6:	e7aa      	b.n	80024fe <floor+0x46>
 80025a8:	8800759c 	.word	0x8800759c
 80025ac:	7e37e43c 	.word	0x7e37e43c
 80025b0:	bff00000 	.word	0xbff00000
 80025b4:	000fffff 	.word	0x000fffff

080025b8 <scalbn>:
 80025b8:	b570      	push	{r4, r5, r6, lr}
 80025ba:	ec55 4b10 	vmov	r4, r5, d0
 80025be:	f3c5 520a 	ubfx	r2, r5, #20, #11
 80025c2:	4606      	mov	r6, r0
 80025c4:	462b      	mov	r3, r5
 80025c6:	b99a      	cbnz	r2, 80025f0 <scalbn+0x38>
 80025c8:	f025 4300 	bic.w	r3, r5, #2147483648	; 0x80000000
 80025cc:	4323      	orrs	r3, r4
 80025ce:	d036      	beq.n	800263e <scalbn+0x86>
 80025d0:	4b39      	ldr	r3, [pc, #228]	; (80026b8 <scalbn+0x100>)
 80025d2:	4629      	mov	r1, r5
 80025d4:	ee10 0a10 	vmov	r0, s0
 80025d8:	2200      	movs	r2, #0
 80025da:	f7fd ffb1 	bl	8000540 <__aeabi_dmul>
 80025de:	4b37      	ldr	r3, [pc, #220]	; (80026bc <scalbn+0x104>)
 80025e0:	429e      	cmp	r6, r3
 80025e2:	4604      	mov	r4, r0
 80025e4:	460d      	mov	r5, r1
 80025e6:	da10      	bge.n	800260a <scalbn+0x52>
 80025e8:	a32b      	add	r3, pc, #172	; (adr r3, 8002698 <scalbn+0xe0>)
 80025ea:	e9d3 2300 	ldrd	r2, r3, [r3]
 80025ee:	e03a      	b.n	8002666 <scalbn+0xae>
 80025f0:	f240 71ff 	movw	r1, #2047	; 0x7ff
 80025f4:	428a      	cmp	r2, r1
 80025f6:	d10c      	bne.n	8002612 <scalbn+0x5a>
 80025f8:	ee10 2a10 	vmov	r2, s0
 80025fc:	4620      	mov	r0, r4
 80025fe:	4629      	mov	r1, r5
 8002600:	f7fd fde8 	bl	80001d4 <__adddf3>
 8002604:	4604      	mov	r4, r0
 8002606:	460d      	mov	r5, r1
 8002608:	e019      	b.n	800263e <scalbn+0x86>
 800260a:	f3c1 520a 	ubfx	r2, r1, #20, #11
 800260e:	460b      	mov	r3, r1
 8002610:	3a36      	subs	r2, #54	; 0x36
 8002612:	4432      	add	r2, r6
 8002614:	f240 71fe 	movw	r1, #2046	; 0x7fe
 8002618:	428a      	cmp	r2, r1
 800261a:	dd08      	ble.n	800262e <scalbn+0x76>
 800261c:	2d00      	cmp	r5, #0
 800261e:	a120      	add	r1, pc, #128	; (adr r1, 80026a0 <scalbn+0xe8>)
 8002620:	e9d1 0100 	ldrd	r0, r1, [r1]
 8002624:	da1c      	bge.n	8002660 <scalbn+0xa8>
 8002626:	a120      	add	r1, pc, #128	; (adr r1, 80026a8 <scalbn+0xf0>)
 8002628:	e9d1 0100 	ldrd	r0, r1, [r1]
 800262c:	e018      	b.n	8002660 <scalbn+0xa8>
 800262e:	2a00      	cmp	r2, #0
 8002630:	dd08      	ble.n	8002644 <scalbn+0x8c>
 8002632:	f023 43ff 	bic.w	r3, r3, #2139095040	; 0x7f800000
 8002636:	f423 03e0 	bic.w	r3, r3, #7340032	; 0x700000
 800263a:	ea43 5502 	orr.w	r5, r3, r2, lsl #20
 800263e:	ec45 4b10 	vmov	d0, r4, r5
 8002642:	bd70      	pop	{r4, r5, r6, pc}
 8002644:	f112 0f35 	cmn.w	r2, #53	; 0x35
 8002648:	da19      	bge.n	800267e <scalbn+0xc6>
 800264a:	f24c 3350 	movw	r3, #50000	; 0xc350
 800264e:	429e      	cmp	r6, r3
 8002650:	f005 4300 	and.w	r3, r5, #2147483648	; 0x80000000
 8002654:	dd0a      	ble.n	800266c <scalbn+0xb4>
 8002656:	a112      	add	r1, pc, #72	; (adr r1, 80026a0 <scalbn+0xe8>)
 8002658:	e9d1 0100 	ldrd	r0, r1, [r1]
 800265c:	2b00      	cmp	r3, #0
 800265e:	d1e2      	bne.n	8002626 <scalbn+0x6e>
 8002660:	a30f      	add	r3, pc, #60	; (adr r3, 80026a0 <scalbn+0xe8>)
 8002662:	e9d3 2300 	ldrd	r2, r3, [r3]
 8002666:	f7fd ff6b 	bl	8000540 <__aeabi_dmul>
 800266a:	e7cb      	b.n	8002604 <scalbn+0x4c>
 800266c:	a10a      	add	r1, pc, #40	; (adr r1, 8002698 <scalbn+0xe0>)
 800266e:	e9d1 0100 	ldrd	r0, r1, [r1]
 8002672:	2b00      	cmp	r3, #0
 8002674:	d0b8      	beq.n	80025e8 <scalbn+0x30>
 8002676:	a10e      	add	r1, pc, #56	; (adr r1, 80026b0 <scalbn+0xf8>)
 8002678:	e9d1 0100 	ldrd	r0, r1, [r1]
 800267c:	e7b4      	b.n	80025e8 <scalbn+0x30>
 800267e:	f023 43ff 	bic.w	r3, r3, #2139095040	; 0x7f800000
 8002682:	3236      	adds	r2, #54	; 0x36
 8002684:	f423 03e0 	bic.w	r3, r3, #7340032	; 0x700000
 8002688:	ea43 5102 	orr.w	r1, r3, r2, lsl #20
 800268c:	4620      	mov	r0, r4
 800268e:	4b0c      	ldr	r3, [pc, #48]	; (80026c0 <scalbn+0x108>)
 8002690:	2200      	movs	r2, #0
 8002692:	e7e8      	b.n	8002666 <scalbn+0xae>
 8002694:	f3af 8000 	nop.w
 8002698:	c2f8f359 	.word	0xc2f8f359
 800269c:	01a56e1f 	.word	0x01a56e1f
 80026a0:	8800759c 	.word	0x8800759c
 80026a4:	7e37e43c 	.word	0x7e37e43c
 80026a8:	8800759c 	.word	0x8800759c
 80026ac:	fe37e43c 	.word	0xfe37e43c
 80026b0:	c2f8f359 	.word	0xc2f8f359
 80026b4:	81a56e1f 	.word	0x81a56e1f
 80026b8:	43500000 	.word	0x43500000
 80026bc:	ffff3cb0 	.word	0xffff3cb0
 80026c0:	3c900000 	.word	0x3c900000

080026c4 <_init>:
 80026c4:	b5f8      	push	{r3, r4, r5, r6, r7, lr}
 80026c6:	bf00      	nop
 80026c8:	bcf8      	pop	{r3, r4, r5, r6, r7}
 80026ca:	bc08      	pop	{r3}
 80026cc:	469e      	mov	lr, r3
 80026ce:	4770      	bx	lr

080026d0 <_fini>:
 80026d0:	b5f8      	push	{r3, r4, r5, r6, r7, lr}
 80026d2:	bf00      	nop
 80026d4:	bcf8      	pop	{r3, r4, r5, r6, r7}
 80026d6:	bc08      	pop	{r3}
 80026d8:	469e      	mov	lr, r3
 80026da:	4770      	bx	lr
